
ctarget:     file format elf64-x86-64


Disassembly of section .init:

0000000000400c48 <_init>:
  400c48:	48 83 ec 08          	sub    $0x8,%rsp
  400c4c:	48 8b 05 a5 43 20 00 	mov    0x2043a5(%rip),%rax        # 604ff8 <__gmon_start__>
  400c53:	48 85 c0             	test   %rax,%rax
  400c56:	74 02                	je     400c5a <_init+0x12>
  400c58:	ff d0                	callq  *%rax
  400c5a:	48 83 c4 08          	add    $0x8,%rsp
  400c5e:	c3                   	retq   

Disassembly of section .plt:

0000000000400c60 <.plt>:
  400c60:	ff 35 a2 43 20 00    	pushq  0x2043a2(%rip)        # 605008 <_GLOBAL_OFFSET_TABLE_+0x8>
  400c66:	ff 25 a4 43 20 00    	jmpq   *0x2043a4(%rip)        # 605010 <_GLOBAL_OFFSET_TABLE_+0x10>
  400c6c:	0f 1f 40 00          	nopl   0x0(%rax)

0000000000400c70 <strcasecmp@plt>:
  400c70:	ff 25 a2 43 20 00    	jmpq   *0x2043a2(%rip)        # 605018 <strcasecmp@GLIBC_2.2.5>
  400c76:	68 00 00 00 00       	pushq  $0x0
  400c7b:	e9 e0 ff ff ff       	jmpq   400c60 <.plt>

0000000000400c80 <__errno_location@plt>:
  400c80:	ff 25 9a 43 20 00    	jmpq   *0x20439a(%rip)        # 605020 <__errno_location@GLIBC_2.2.5>
  400c86:	68 01 00 00 00       	pushq  $0x1
  400c8b:	e9 d0 ff ff ff       	jmpq   400c60 <.plt>

0000000000400c90 <srandom@plt>:
  400c90:	ff 25 92 43 20 00    	jmpq   *0x204392(%rip)        # 605028 <srandom@GLIBC_2.2.5>
  400c96:	68 02 00 00 00       	pushq  $0x2
  400c9b:	e9 c0 ff ff ff       	jmpq   400c60 <.plt>

0000000000400ca0 <strncmp@plt>:
  400ca0:	ff 25 8a 43 20 00    	jmpq   *0x20438a(%rip)        # 605030 <strncmp@GLIBC_2.2.5>
  400ca6:	68 03 00 00 00       	pushq  $0x3
  400cab:	e9 b0 ff ff ff       	jmpq   400c60 <.plt>

0000000000400cb0 <strcpy@plt>:
  400cb0:	ff 25 82 43 20 00    	jmpq   *0x204382(%rip)        # 605038 <strcpy@GLIBC_2.2.5>
  400cb6:	68 04 00 00 00       	pushq  $0x4
  400cbb:	e9 a0 ff ff ff       	jmpq   400c60 <.plt>

0000000000400cc0 <puts@plt>:
  400cc0:	ff 25 7a 43 20 00    	jmpq   *0x20437a(%rip)        # 605040 <puts@GLIBC_2.2.5>
  400cc6:	68 05 00 00 00       	pushq  $0x5
  400ccb:	e9 90 ff ff ff       	jmpq   400c60 <.plt>

0000000000400cd0 <write@plt>:
  400cd0:	ff 25 72 43 20 00    	jmpq   *0x204372(%rip)        # 605048 <write@GLIBC_2.2.5>
  400cd6:	68 06 00 00 00       	pushq  $0x6
  400cdb:	e9 80 ff ff ff       	jmpq   400c60 <.plt>

0000000000400ce0 <__stack_chk_fail@plt>:
  400ce0:	ff 25 6a 43 20 00    	jmpq   *0x20436a(%rip)        # 605050 <__stack_chk_fail@GLIBC_2.4>
  400ce6:	68 07 00 00 00       	pushq  $0x7
  400ceb:	e9 70 ff ff ff       	jmpq   400c60 <.plt>

0000000000400cf0 <mmap@plt>:
  400cf0:	ff 25 62 43 20 00    	jmpq   *0x204362(%rip)        # 605058 <mmap@GLIBC_2.2.5>
  400cf6:	68 08 00 00 00       	pushq  $0x8
  400cfb:	e9 60 ff ff ff       	jmpq   400c60 <.plt>

0000000000400d00 <memset@plt>:
  400d00:	ff 25 5a 43 20 00    	jmpq   *0x20435a(%rip)        # 605060 <memset@GLIBC_2.2.5>
  400d06:	68 09 00 00 00       	pushq  $0x9
  400d0b:	e9 50 ff ff ff       	jmpq   400c60 <.plt>

0000000000400d10 <alarm@plt>:
  400d10:	ff 25 52 43 20 00    	jmpq   *0x204352(%rip)        # 605068 <alarm@GLIBC_2.2.5>
  400d16:	68 0a 00 00 00       	pushq  $0xa
  400d1b:	e9 40 ff ff ff       	jmpq   400c60 <.plt>

0000000000400d20 <close@plt>:
  400d20:	ff 25 4a 43 20 00    	jmpq   *0x20434a(%rip)        # 605070 <close@GLIBC_2.2.5>
  400d26:	68 0b 00 00 00       	pushq  $0xb
  400d2b:	e9 30 ff ff ff       	jmpq   400c60 <.plt>

0000000000400d30 <read@plt>:
  400d30:	ff 25 42 43 20 00    	jmpq   *0x204342(%rip)        # 605078 <read@GLIBC_2.2.5>
  400d36:	68 0c 00 00 00       	pushq  $0xc
  400d3b:	e9 20 ff ff ff       	jmpq   400c60 <.plt>

0000000000400d40 <signal@plt>:
  400d40:	ff 25 3a 43 20 00    	jmpq   *0x20433a(%rip)        # 605080 <signal@GLIBC_2.2.5>
  400d46:	68 0d 00 00 00       	pushq  $0xd
  400d4b:	e9 10 ff ff ff       	jmpq   400c60 <.plt>

0000000000400d50 <gethostbyname@plt>:
  400d50:	ff 25 32 43 20 00    	jmpq   *0x204332(%rip)        # 605088 <gethostbyname@GLIBC_2.2.5>
  400d56:	68 0e 00 00 00       	pushq  $0xe
  400d5b:	e9 00 ff ff ff       	jmpq   400c60 <.plt>

0000000000400d60 <__memmove_chk@plt>:
  400d60:	ff 25 2a 43 20 00    	jmpq   *0x20432a(%rip)        # 605090 <__memmove_chk@GLIBC_2.3.4>
  400d66:	68 0f 00 00 00       	pushq  $0xf
  400d6b:	e9 f0 fe ff ff       	jmpq   400c60 <.plt>

0000000000400d70 <strtol@plt>:
  400d70:	ff 25 22 43 20 00    	jmpq   *0x204322(%rip)        # 605098 <strtol@GLIBC_2.2.5>
  400d76:	68 10 00 00 00       	pushq  $0x10
  400d7b:	e9 e0 fe ff ff       	jmpq   400c60 <.plt>

0000000000400d80 <memcpy@plt>:
  400d80:	ff 25 1a 43 20 00    	jmpq   *0x20431a(%rip)        # 6050a0 <memcpy@GLIBC_2.14>
  400d86:	68 11 00 00 00       	pushq  $0x11
  400d8b:	e9 d0 fe ff ff       	jmpq   400c60 <.plt>

0000000000400d90 <time@plt>:
  400d90:	ff 25 12 43 20 00    	jmpq   *0x204312(%rip)        # 6050a8 <time@GLIBC_2.2.5>
  400d96:	68 12 00 00 00       	pushq  $0x12
  400d9b:	e9 c0 fe ff ff       	jmpq   400c60 <.plt>

0000000000400da0 <random@plt>:
  400da0:	ff 25 0a 43 20 00    	jmpq   *0x20430a(%rip)        # 6050b0 <random@GLIBC_2.2.5>
  400da6:	68 13 00 00 00       	pushq  $0x13
  400dab:	e9 b0 fe ff ff       	jmpq   400c60 <.plt>

0000000000400db0 <_IO_getc@plt>:
  400db0:	ff 25 02 43 20 00    	jmpq   *0x204302(%rip)        # 6050b8 <_IO_getc@GLIBC_2.2.5>
  400db6:	68 14 00 00 00       	pushq  $0x14
  400dbb:	e9 a0 fe ff ff       	jmpq   400c60 <.plt>

0000000000400dc0 <__isoc99_sscanf@plt>:
  400dc0:	ff 25 fa 42 20 00    	jmpq   *0x2042fa(%rip)        # 6050c0 <__isoc99_sscanf@GLIBC_2.7>
  400dc6:	68 15 00 00 00       	pushq  $0x15
  400dcb:	e9 90 fe ff ff       	jmpq   400c60 <.plt>

0000000000400dd0 <munmap@plt>:
  400dd0:	ff 25 f2 42 20 00    	jmpq   *0x2042f2(%rip)        # 6050c8 <munmap@GLIBC_2.2.5>
  400dd6:	68 16 00 00 00       	pushq  $0x16
  400ddb:	e9 80 fe ff ff       	jmpq   400c60 <.plt>

0000000000400de0 <__printf_chk@plt>:
  400de0:	ff 25 ea 42 20 00    	jmpq   *0x2042ea(%rip)        # 6050d0 <__printf_chk@GLIBC_2.3.4>
  400de6:	68 17 00 00 00       	pushq  $0x17
  400deb:	e9 70 fe ff ff       	jmpq   400c60 <.plt>

0000000000400df0 <fopen@plt>:
  400df0:	ff 25 e2 42 20 00    	jmpq   *0x2042e2(%rip)        # 6050d8 <fopen@GLIBC_2.2.5>
  400df6:	68 18 00 00 00       	pushq  $0x18
  400dfb:	e9 60 fe ff ff       	jmpq   400c60 <.plt>

0000000000400e00 <getopt@plt>:
  400e00:	ff 25 da 42 20 00    	jmpq   *0x2042da(%rip)        # 6050e0 <getopt@GLIBC_2.2.5>
  400e06:	68 19 00 00 00       	pushq  $0x19
  400e0b:	e9 50 fe ff ff       	jmpq   400c60 <.plt>

0000000000400e10 <strtoul@plt>:
  400e10:	ff 25 d2 42 20 00    	jmpq   *0x2042d2(%rip)        # 6050e8 <strtoul@GLIBC_2.2.5>
  400e16:	68 1a 00 00 00       	pushq  $0x1a
  400e1b:	e9 40 fe ff ff       	jmpq   400c60 <.plt>

0000000000400e20 <gethostname@plt>:
  400e20:	ff 25 ca 42 20 00    	jmpq   *0x2042ca(%rip)        # 6050f0 <gethostname@GLIBC_2.2.5>
  400e26:	68 1b 00 00 00       	pushq  $0x1b
  400e2b:	e9 30 fe ff ff       	jmpq   400c60 <.plt>

0000000000400e30 <exit@plt>:
  400e30:	ff 25 c2 42 20 00    	jmpq   *0x2042c2(%rip)        # 6050f8 <exit@GLIBC_2.2.5>
  400e36:	68 1c 00 00 00       	pushq  $0x1c
  400e3b:	e9 20 fe ff ff       	jmpq   400c60 <.plt>

0000000000400e40 <connect@plt>:
  400e40:	ff 25 ba 42 20 00    	jmpq   *0x2042ba(%rip)        # 605100 <connect@GLIBC_2.2.5>
  400e46:	68 1d 00 00 00       	pushq  $0x1d
  400e4b:	e9 10 fe ff ff       	jmpq   400c60 <.plt>

0000000000400e50 <__fprintf_chk@plt>:
  400e50:	ff 25 b2 42 20 00    	jmpq   *0x2042b2(%rip)        # 605108 <__fprintf_chk@GLIBC_2.3.4>
  400e56:	68 1e 00 00 00       	pushq  $0x1e
  400e5b:	e9 00 fe ff ff       	jmpq   400c60 <.plt>

0000000000400e60 <__sprintf_chk@plt>:
  400e60:	ff 25 aa 42 20 00    	jmpq   *0x2042aa(%rip)        # 605110 <__sprintf_chk@GLIBC_2.3.4>
  400e66:	68 1f 00 00 00       	pushq  $0x1f
  400e6b:	e9 f0 fd ff ff       	jmpq   400c60 <.plt>

0000000000400e70 <socket@plt>:
  400e70:	ff 25 a2 42 20 00    	jmpq   *0x2042a2(%rip)        # 605118 <socket@GLIBC_2.2.5>
  400e76:	68 20 00 00 00       	pushq  $0x20
  400e7b:	e9 e0 fd ff ff       	jmpq   400c60 <.plt>

Disassembly of section .text:

0000000000400e80 <_start>:
  400e80:	31 ed                	xor    %ebp,%ebp
  400e82:	49 89 d1             	mov    %rdx,%r9
  400e85:	5e                   	pop    %rsi
  400e86:	48 89 e2             	mov    %rsp,%rdx
  400e89:	48 83 e4 f0          	and    $0xfffffffffffffff0,%rsp
  400e8d:	50                   	push   %rax
  400e8e:	54                   	push   %rsp
  400e8f:	49 c7 c0 f0 2e 40 00 	mov    $0x402ef0,%r8
  400e96:	48 c7 c1 80 2e 40 00 	mov    $0x402e80,%rcx
  400e9d:	48 c7 c7 73 11 40 00 	mov    $0x401173,%rdi
  400ea4:	ff 15 46 41 20 00    	callq  *0x204146(%rip)        # 604ff0 <__libc_start_main@GLIBC_2.2.5>
  400eaa:	f4                   	hlt    
  400eab:	0f 1f 44 00 00       	nopl   0x0(%rax,%rax,1)

0000000000400eb0 <_dl_relocate_static_pie>:
  400eb0:	f3 c3                	repz retq 
  400eb2:	66 2e 0f 1f 84 00 00 	nopw   %cs:0x0(%rax,%rax,1)
  400eb9:	00 00 00 
  400ebc:	0f 1f 40 00          	nopl   0x0(%rax)

0000000000400ec0 <deregister_tm_clones>:
  400ec0:	55                   	push   %rbp
  400ec1:	b8 90 54 60 00       	mov    $0x605490,%eax
  400ec6:	48 3d 90 54 60 00    	cmp    $0x605490,%rax
  400ecc:	48 89 e5             	mov    %rsp,%rbp
  400ecf:	74 17                	je     400ee8 <deregister_tm_clones+0x28>
  400ed1:	b8 00 00 00 00       	mov    $0x0,%eax
  400ed6:	48 85 c0             	test   %rax,%rax
  400ed9:	74 0d                	je     400ee8 <deregister_tm_clones+0x28>
  400edb:	5d                   	pop    %rbp
  400edc:	bf 90 54 60 00       	mov    $0x605490,%edi
  400ee1:	ff e0                	jmpq   *%rax
  400ee3:	0f 1f 44 00 00       	nopl   0x0(%rax,%rax,1)
  400ee8:	5d                   	pop    %rbp
  400ee9:	c3                   	retq   
  400eea:	66 0f 1f 44 00 00    	nopw   0x0(%rax,%rax,1)

0000000000400ef0 <register_tm_clones>:
  400ef0:	be 90 54 60 00       	mov    $0x605490,%esi
  400ef5:	55                   	push   %rbp
  400ef6:	48 81 ee 90 54 60 00 	sub    $0x605490,%rsi
  400efd:	48 89 e5             	mov    %rsp,%rbp
  400f00:	48 c1 fe 03          	sar    $0x3,%rsi
  400f04:	48 89 f0             	mov    %rsi,%rax
  400f07:	48 c1 e8 3f          	shr    $0x3f,%rax
  400f0b:	48 01 c6             	add    %rax,%rsi
  400f0e:	48 d1 fe             	sar    %rsi
  400f11:	74 15                	je     400f28 <register_tm_clones+0x38>
  400f13:	b8 00 00 00 00       	mov    $0x0,%eax
  400f18:	48 85 c0             	test   %rax,%rax
  400f1b:	74 0b                	je     400f28 <register_tm_clones+0x38>
  400f1d:	5d                   	pop    %rbp
  400f1e:	bf 90 54 60 00       	mov    $0x605490,%edi
  400f23:	ff e0                	jmpq   *%rax
  400f25:	0f 1f 00             	nopl   (%rax)
  400f28:	5d                   	pop    %rbp
  400f29:	c3                   	retq   
  400f2a:	66 0f 1f 44 00 00    	nopw   0x0(%rax,%rax,1)

0000000000400f30 <__do_global_dtors_aux>:
  400f30:	80 3d 91 45 20 00 00 	cmpb   $0x0,0x204591(%rip)        # 6054c8 <completed.7697>
  400f37:	75 17                	jne    400f50 <__do_global_dtors_aux+0x20>
  400f39:	55                   	push   %rbp
  400f3a:	48 89 e5             	mov    %rsp,%rbp
  400f3d:	e8 7e ff ff ff       	callq  400ec0 <deregister_tm_clones>
  400f42:	c6 05 7f 45 20 00 01 	movb   $0x1,0x20457f(%rip)        # 6054c8 <completed.7697>
  400f49:	5d                   	pop    %rbp
  400f4a:	c3                   	retq   
  400f4b:	0f 1f 44 00 00       	nopl   0x0(%rax,%rax,1)
  400f50:	f3 c3                	repz retq 
  400f52:	0f 1f 40 00          	nopl   0x0(%rax)
  400f56:	66 2e 0f 1f 84 00 00 	nopw   %cs:0x0(%rax,%rax,1)
  400f5d:	00 00 00 

0000000000400f60 <frame_dummy>:
  400f60:	55                   	push   %rbp
  400f61:	48 89 e5             	mov    %rsp,%rbp
  400f64:	5d                   	pop    %rbp
  400f65:	eb 89                	jmp    400ef0 <register_tm_clones>

0000000000400f67 <usage>:
  400f67:	48 83 ec 08          	sub    $0x8,%rsp
  400f6b:	48 89 fa             	mov    %rdi,%rdx
  400f6e:	83 3d 93 45 20 00 00 	cmpl   $0x0,0x204593(%rip)        # 605508 <is_checker>
  400f75:	74 46                	je     400fbd <usage+0x56>
  400f77:	be 08 2f 40 00       	mov    $0x402f08,%esi
  400f7c:	bf 01 00 00 00       	mov    $0x1,%edi
  400f81:	b8 00 00 00 00       	mov    $0x0,%eax
  400f86:	e8 55 fe ff ff       	callq  400de0 <__printf_chk@plt>
  400f8b:	bf 40 2f 40 00       	mov    $0x402f40,%edi
  400f90:	e8 2b fd ff ff       	callq  400cc0 <puts@plt>
  400f95:	bf b8 30 40 00       	mov    $0x4030b8,%edi
  400f9a:	e8 21 fd ff ff       	callq  400cc0 <puts@plt>
  400f9f:	bf 68 2f 40 00       	mov    $0x402f68,%edi
  400fa4:	e8 17 fd ff ff       	callq  400cc0 <puts@plt>
  400fa9:	bf d2 30 40 00       	mov    $0x4030d2,%edi
  400fae:	e8 0d fd ff ff       	callq  400cc0 <puts@plt>
  400fb3:	bf 00 00 00 00       	mov    $0x0,%edi
  400fb8:	e8 73 fe ff ff       	callq  400e30 <exit@plt>
  400fbd:	be ee 30 40 00       	mov    $0x4030ee,%esi
  400fc2:	bf 01 00 00 00       	mov    $0x1,%edi
  400fc7:	b8 00 00 00 00       	mov    $0x0,%eax
  400fcc:	e8 0f fe ff ff       	callq  400de0 <__printf_chk@plt>
  400fd1:	bf 90 2f 40 00       	mov    $0x402f90,%edi
  400fd6:	e8 e5 fc ff ff       	callq  400cc0 <puts@plt>
  400fdb:	bf b8 2f 40 00       	mov    $0x402fb8,%edi
  400fe0:	e8 db fc ff ff       	callq  400cc0 <puts@plt>
  400fe5:	bf 0c 31 40 00       	mov    $0x40310c,%edi
  400fea:	e8 d1 fc ff ff       	callq  400cc0 <puts@plt>
  400fef:	eb c2                	jmp    400fb3 <usage+0x4c>

0000000000400ff1 <initialize_target>:
  400ff1:	55                   	push   %rbp
  400ff2:	53                   	push   %rbx
  400ff3:	48 81 ec 18 21 00 00 	sub    $0x2118,%rsp
  400ffa:	89 f5                	mov    %esi,%ebp
  400ffc:	64 48 8b 04 25 28 00 	mov    %fs:0x28,%rax
  401003:	00 00 
  401005:	48 89 84 24 08 21 00 	mov    %rax,0x2108(%rsp)
  40100c:	00 
  40100d:	31 c0                	xor    %eax,%eax
  40100f:	89 3d e3 44 20 00    	mov    %edi,0x2044e3(%rip)        # 6054f8 <check_level>
  401015:	8b 3d 2d 41 20 00    	mov    0x20412d(%rip),%edi        # 605148 <target_id>
  40101b:	e8 37 1e 00 00       	callq  402e57 <gencookie>
  401020:	89 05 de 44 20 00    	mov    %eax,0x2044de(%rip)        # 605504 <cookie>
  401026:	89 c7                	mov    %eax,%edi
  401028:	e8 2a 1e 00 00       	callq  402e57 <gencookie>
  40102d:	89 05 cd 44 20 00    	mov    %eax,0x2044cd(%rip)        # 605500 <authkey>
  401033:	8b 05 0f 41 20 00    	mov    0x20410f(%rip),%eax        # 605148 <target_id>
  401039:	8d 78 01             	lea    0x1(%rax),%edi
  40103c:	e8 4f fc ff ff       	callq  400c90 <srandom@plt>
  401041:	e8 5a fd ff ff       	callq  400da0 <random@plt>
  401046:	89 c7                	mov    %eax,%edi
  401048:	e8 f2 02 00 00       	callq  40133f <scramble>
  40104d:	89 c3                	mov    %eax,%ebx
  40104f:	85 ed                	test   %ebp,%ebp
  401051:	75 54                	jne    4010a7 <initialize_target+0xb6>
  401053:	b8 00 00 00 00       	mov    $0x0,%eax
  401058:	01 d8                	add    %ebx,%eax
  40105a:	0f b7 c0             	movzwl %ax,%eax
  40105d:	8d 04 c5 00 01 00 00 	lea    0x100(,%rax,8),%eax
  401064:	89 c0                	mov    %eax,%eax
  401066:	48 89 05 13 44 20 00 	mov    %rax,0x204413(%rip)        # 605480 <buf_offset>
  40106d:	c6 05 b4 50 20 00 63 	movb   $0x63,0x2050b4(%rip)        # 606128 <target_prefix>
  401074:	83 3d 0d 44 20 00 00 	cmpl   $0x0,0x20440d(%rip)        # 605488 <notify>
  40107b:	74 09                	je     401086 <initialize_target+0x95>
  40107d:	83 3d 84 44 20 00 00 	cmpl   $0x0,0x204484(%rip)        # 605508 <is_checker>
  401084:	74 39                	je     4010bf <initialize_target+0xce>
  401086:	48 8b 84 24 08 21 00 	mov    0x2108(%rsp),%rax
  40108d:	00 
  40108e:	64 48 33 04 25 28 00 	xor    %fs:0x28,%rax
  401095:	00 00 
  401097:	0f 85 d1 00 00 00    	jne    40116e <initialize_target+0x17d>
  40109d:	48 81 c4 18 21 00 00 	add    $0x2118,%rsp
  4010a4:	5b                   	pop    %rbx
  4010a5:	5d                   	pop    %rbp
  4010a6:	c3                   	retq   
  4010a7:	bf 00 00 00 00       	mov    $0x0,%edi
  4010ac:	e8 df fc ff ff       	callq  400d90 <time@plt>
  4010b1:	89 c7                	mov    %eax,%edi
  4010b3:	e8 d8 fb ff ff       	callq  400c90 <srandom@plt>
  4010b8:	e8 e3 fc ff ff       	callq  400da0 <random@plt>
  4010bd:	eb 99                	jmp    401058 <initialize_target+0x67>
  4010bf:	be 00 01 00 00       	mov    $0x100,%esi
  4010c4:	48 89 e7             	mov    %rsp,%rdi
  4010c7:	e8 54 fd ff ff       	callq  400e20 <gethostname@plt>
  4010cc:	89 c5                	mov    %eax,%ebp
  4010ce:	85 c0                	test   %eax,%eax
  4010d0:	75 23                	jne    4010f5 <initialize_target+0x104>
  4010d2:	89 c3                	mov    %eax,%ebx
  4010d4:	48 63 c3             	movslq %ebx,%rax
  4010d7:	48 8b 3c c5 60 51 60 	mov    0x605160(,%rax,8),%rdi
  4010de:	00 
  4010df:	48 85 ff             	test   %rdi,%rdi
  4010e2:	74 2a                	je     40110e <initialize_target+0x11d>
  4010e4:	48 89 e6             	mov    %rsp,%rsi
  4010e7:	e8 84 fb ff ff       	callq  400c70 <strcasecmp@plt>
  4010ec:	85 c0                	test   %eax,%eax
  4010ee:	74 19                	je     401109 <initialize_target+0x118>
  4010f0:	83 c3 01             	add    $0x1,%ebx
  4010f3:	eb df                	jmp    4010d4 <initialize_target+0xe3>
  4010f5:	bf e8 2f 40 00       	mov    $0x402fe8,%edi
  4010fa:	e8 c1 fb ff ff       	callq  400cc0 <puts@plt>
  4010ff:	bf 08 00 00 00       	mov    $0x8,%edi
  401104:	e8 27 fd ff ff       	callq  400e30 <exit@plt>
  401109:	bd 01 00 00 00       	mov    $0x1,%ebp
  40110e:	85 ed                	test   %ebp,%ebp
  401110:	74 3b                	je     40114d <initialize_target+0x15c>
  401112:	48 8d bc 24 00 01 00 	lea    0x100(%rsp),%rdi
  401119:	00 
  40111a:	e8 8d 1a 00 00       	callq  402bac <init_driver>
  40111f:	85 c0                	test   %eax,%eax
  401121:	0f 89 5f ff ff ff    	jns    401086 <initialize_target+0x95>
  401127:	48 8d 94 24 00 01 00 	lea    0x100(%rsp),%rdx
  40112e:	00 
  40112f:	be 60 30 40 00       	mov    $0x403060,%esi
  401134:	bf 01 00 00 00       	mov    $0x1,%edi
  401139:	b8 00 00 00 00       	mov    $0x0,%eax
  40113e:	e8 9d fc ff ff       	callq  400de0 <__printf_chk@plt>
  401143:	bf 08 00 00 00       	mov    $0x8,%edi
  401148:	e8 e3 fc ff ff       	callq  400e30 <exit@plt>
  40114d:	48 89 e2             	mov    %rsp,%rdx
  401150:	be 20 30 40 00       	mov    $0x403020,%esi
  401155:	bf 01 00 00 00       	mov    $0x1,%edi
  40115a:	b8 00 00 00 00       	mov    $0x0,%eax
  40115f:	e8 7c fc ff ff       	callq  400de0 <__printf_chk@plt>
  401164:	bf 08 00 00 00       	mov    $0x8,%edi
  401169:	e8 c2 fc ff ff       	callq  400e30 <exit@plt>
  40116e:	e8 6d fb ff ff       	callq  400ce0 <__stack_chk_fail@plt>

0000000000401173 <main>:
  401173:	41 56                	push   %r14
  401175:	41 55                	push   %r13
  401177:	41 54                	push   %r12
  401179:	55                   	push   %rbp
  40117a:	53                   	push   %rbx
  40117b:	41 89 fc             	mov    %edi,%r12d
  40117e:	48 89 f3             	mov    %rsi,%rbx
  401181:	be e9 1e 40 00       	mov    $0x401ee9,%esi
  401186:	bf 0b 00 00 00       	mov    $0xb,%edi
  40118b:	e8 b0 fb ff ff       	callq  400d40 <signal@plt>
  401190:	be 9b 1e 40 00       	mov    $0x401e9b,%esi
  401195:	bf 07 00 00 00       	mov    $0x7,%edi
  40119a:	e8 a1 fb ff ff       	callq  400d40 <signal@plt>
  40119f:	be 37 1f 40 00       	mov    $0x401f37,%esi
  4011a4:	bf 04 00 00 00       	mov    $0x4,%edi
  4011a9:	e8 92 fb ff ff       	callq  400d40 <signal@plt>
  4011ae:	83 3d 53 43 20 00 00 	cmpl   $0x0,0x204353(%rip)        # 605508 <is_checker>
  4011b5:	75 24                	jne    4011db <main+0x68>
  4011b7:	bd 25 31 40 00       	mov    $0x403125,%ebp
  4011bc:	48 8b 05 dd 42 20 00 	mov    0x2042dd(%rip),%rax        # 6054a0 <stdin@@GLIBC_2.2.5>
  4011c3:	48 89 05 26 43 20 00 	mov    %rax,0x204326(%rip)        # 6054f0 <infile>
  4011ca:	41 bd 00 00 00 00    	mov    $0x0,%r13d
  4011d0:	41 be 00 00 00 00    	mov    $0x0,%r14d
  4011d6:	e9 85 00 00 00       	jmpq   401260 <main+0xed>
  4011db:	be 85 1f 40 00       	mov    $0x401f85,%esi
  4011e0:	bf 0e 00 00 00       	mov    $0xe,%edi
  4011e5:	e8 56 fb ff ff       	callq  400d40 <signal@plt>
  4011ea:	bf 05 00 00 00       	mov    $0x5,%edi
  4011ef:	e8 1c fb ff ff       	callq  400d10 <alarm@plt>
  4011f4:	bd 2a 31 40 00       	mov    $0x40312a,%ebp
  4011f9:	eb c1                	jmp    4011bc <main+0x49>
  4011fb:	48 8b 3b             	mov    (%rbx),%rdi
  4011fe:	e8 64 fd ff ff       	callq  400f67 <usage>
  401203:	be 0d 34 40 00       	mov    $0x40340d,%esi
  401208:	48 8b 3d 99 42 20 00 	mov    0x204299(%rip),%rdi        # 6054a8 <optarg@@GLIBC_2.2.5>
  40120f:	e8 dc fb ff ff       	callq  400df0 <fopen@plt>
  401214:	48 89 05 d5 42 20 00 	mov    %rax,0x2042d5(%rip)        # 6054f0 <infile>
  40121b:	48 85 c0             	test   %rax,%rax
  40121e:	75 40                	jne    401260 <main+0xed>
  401220:	48 8b 0d 81 42 20 00 	mov    0x204281(%rip),%rcx        # 6054a8 <optarg@@GLIBC_2.2.5>
  401227:	ba 32 31 40 00       	mov    $0x403132,%edx
  40122c:	be 01 00 00 00       	mov    $0x1,%esi
  401231:	48 8b 3d 88 42 20 00 	mov    0x204288(%rip),%rdi        # 6054c0 <stderr@@GLIBC_2.2.5>
  401238:	e8 13 fc ff ff       	callq  400e50 <__fprintf_chk@plt>
  40123d:	b8 01 00 00 00       	mov    $0x1,%eax
  401242:	e9 cc 00 00 00       	jmpq   401313 <main+0x1a0>
  401247:	ba 10 00 00 00       	mov    $0x10,%edx
  40124c:	be 00 00 00 00       	mov    $0x0,%esi
  401251:	48 8b 3d 50 42 20 00 	mov    0x204250(%rip),%rdi        # 6054a8 <optarg@@GLIBC_2.2.5>
  401258:	e8 b3 fb ff ff       	callq  400e10 <strtoul@plt>
  40125d:	41 89 c6             	mov    %eax,%r14d
  401260:	48 89 ea             	mov    %rbp,%rdx
  401263:	48 89 de             	mov    %rbx,%rsi
  401266:	44 89 e7             	mov    %r12d,%edi
  401269:	e8 92 fb ff ff       	callq  400e00 <getopt@plt>
  40126e:	3c ff                	cmp    $0xff,%al
  401270:	74 57                	je     4012c9 <main+0x156>
  401272:	0f be d0             	movsbl %al,%edx
  401275:	83 e8 61             	sub    $0x61,%eax
  401278:	3c 10                	cmp    $0x10,%al
  40127a:	77 31                	ja     4012ad <main+0x13a>
  40127c:	0f b6 c0             	movzbl %al,%eax
  40127f:	ff 24 c5 70 31 40 00 	jmpq   *0x403170(,%rax,8)
  401286:	ba 0a 00 00 00       	mov    $0xa,%edx
  40128b:	be 00 00 00 00       	mov    $0x0,%esi
  401290:	48 8b 3d 11 42 20 00 	mov    0x204211(%rip),%rdi        # 6054a8 <optarg@@GLIBC_2.2.5>
  401297:	e8 d4 fa ff ff       	callq  400d70 <strtol@plt>
  40129c:	41 89 c5             	mov    %eax,%r13d
  40129f:	eb bf                	jmp    401260 <main+0xed>
  4012a1:	c7 05 dd 41 20 00 00 	movl   $0x0,0x2041dd(%rip)        # 605488 <notify>
  4012a8:	00 00 00 
  4012ab:	eb b3                	jmp    401260 <main+0xed>
  4012ad:	be 4f 31 40 00       	mov    $0x40314f,%esi
  4012b2:	bf 01 00 00 00       	mov    $0x1,%edi
  4012b7:	b8 00 00 00 00       	mov    $0x0,%eax
  4012bc:	e8 1f fb ff ff       	callq  400de0 <__printf_chk@plt>
  4012c1:	48 8b 3b             	mov    (%rbx),%rdi
  4012c4:	e8 9e fc ff ff       	callq  400f67 <usage>
  4012c9:	be 00 00 00 00       	mov    $0x0,%esi
  4012ce:	44 89 ef             	mov    %r13d,%edi
  4012d1:	e8 1b fd ff ff       	callq  400ff1 <initialize_target>
  4012d6:	83 3d 2b 42 20 00 00 	cmpl   $0x0,0x20422b(%rip)        # 605508 <is_checker>
  4012dd:	74 09                	je     4012e8 <main+0x175>
  4012df:	44 39 35 1a 42 20 00 	cmp    %r14d,0x20421a(%rip)        # 605500 <authkey>
  4012e6:	75 34                	jne    40131c <main+0x1a9>
  4012e8:	8b 15 16 42 20 00    	mov    0x204216(%rip),%edx        # 605504 <cookie>
  4012ee:	be 62 31 40 00       	mov    $0x403162,%esi
  4012f3:	bf 01 00 00 00       	mov    $0x1,%edi
  4012f8:	b8 00 00 00 00       	mov    $0x0,%eax
  4012fd:	e8 de fa ff ff       	callq  400de0 <__printf_chk@plt>
  401302:	48 8b 3d 77 41 20 00 	mov    0x204177(%rip),%rdi        # 605480 <buf_offset>
  401309:	e8 79 0d 00 00       	callq  402087 <stable_launch>
  40130e:	b8 00 00 00 00       	mov    $0x0,%eax
  401313:	5b                   	pop    %rbx
  401314:	5d                   	pop    %rbp
  401315:	41 5c                	pop    %r12
  401317:	41 5d                	pop    %r13
  401319:	41 5e                	pop    %r14
  40131b:	c3                   	retq   
  40131c:	44 89 f2             	mov    %r14d,%edx
  40131f:	be 88 30 40 00       	mov    $0x403088,%esi
  401324:	bf 01 00 00 00       	mov    $0x1,%edi
  401329:	b8 00 00 00 00       	mov    $0x0,%eax
  40132e:	e8 ad fa ff ff       	callq  400de0 <__printf_chk@plt>
  401333:	b8 00 00 00 00       	mov    $0x0,%eax
  401338:	e8 e7 07 00 00       	callq  401b24 <check_fail>
  40133d:	eb a9                	jmp    4012e8 <main+0x175>

000000000040133f <scramble>:
  40133f:	48 83 ec 38          	sub    $0x38,%rsp
  401343:	64 48 8b 04 25 28 00 	mov    %fs:0x28,%rax
  40134a:	00 00 
  40134c:	48 89 44 24 28       	mov    %rax,0x28(%rsp)
  401351:	31 c0                	xor    %eax,%eax
  401353:	eb 10                	jmp    401365 <scramble+0x26>
  401355:	69 d0 dd a7 00 00    	imul   $0xa7dd,%eax,%edx
  40135b:	01 fa                	add    %edi,%edx
  40135d:	89 c1                	mov    %eax,%ecx
  40135f:	89 14 8c             	mov    %edx,(%rsp,%rcx,4)
  401362:	83 c0 01             	add    $0x1,%eax
  401365:	83 f8 09             	cmp    $0x9,%eax
  401368:	76 eb                	jbe    401355 <scramble+0x16>
  40136a:	8b 44 24 08          	mov    0x8(%rsp),%eax
  40136e:	69 c0 6a 9a 00 00    	imul   $0x9a6a,%eax,%eax
  401374:	89 44 24 08          	mov    %eax,0x8(%rsp)
  401378:	8b 44 24 08          	mov    0x8(%rsp),%eax
  40137c:	69 c0 6c 77 00 00    	imul   $0x776c,%eax,%eax
  401382:	89 44 24 08          	mov    %eax,0x8(%rsp)
  401386:	8b 44 24 24          	mov    0x24(%rsp),%eax
  40138a:	69 c0 30 9a 00 00    	imul   $0x9a30,%eax,%eax
  401390:	89 44 24 24          	mov    %eax,0x24(%rsp)
  401394:	8b 44 24 04          	mov    0x4(%rsp),%eax
  401398:	69 c0 c1 95 00 00    	imul   $0x95c1,%eax,%eax
  40139e:	89 44 24 04          	mov    %eax,0x4(%rsp)
  4013a2:	8b 44 24 20          	mov    0x20(%rsp),%eax
  4013a6:	69 c0 62 a0 00 00    	imul   $0xa062,%eax,%eax
  4013ac:	89 44 24 20          	mov    %eax,0x20(%rsp)
  4013b0:	8b 44 24 20          	mov    0x20(%rsp),%eax
  4013b4:	69 c0 04 73 00 00    	imul   $0x7304,%eax,%eax
  4013ba:	89 44 24 20          	mov    %eax,0x20(%rsp)
  4013be:	8b 04 24             	mov    (%rsp),%eax
  4013c1:	69 c0 1a b6 00 00    	imul   $0xb61a,%eax,%eax
  4013c7:	89 04 24             	mov    %eax,(%rsp)
  4013ca:	8b 44 24 18          	mov    0x18(%rsp),%eax
  4013ce:	69 c0 1c 86 00 00    	imul   $0x861c,%eax,%eax
  4013d4:	89 44 24 18          	mov    %eax,0x18(%rsp)
  4013d8:	8b 44 24 18          	mov    0x18(%rsp),%eax
  4013dc:	69 c0 24 66 00 00    	imul   $0x6624,%eax,%eax
  4013e2:	89 44 24 18          	mov    %eax,0x18(%rsp)
  4013e6:	8b 44 24 14          	mov    0x14(%rsp),%eax
  4013ea:	69 c0 ce cd 00 00    	imul   $0xcdce,%eax,%eax
  4013f0:	89 44 24 14          	mov    %eax,0x14(%rsp)
  4013f4:	8b 44 24 0c          	mov    0xc(%rsp),%eax
  4013f8:	69 c0 cf d6 00 00    	imul   $0xd6cf,%eax,%eax
  4013fe:	89 44 24 0c          	mov    %eax,0xc(%rsp)
  401402:	8b 04 24             	mov    (%rsp),%eax
  401405:	69 c0 63 f1 00 00    	imul   $0xf163,%eax,%eax
  40140b:	89 04 24             	mov    %eax,(%rsp)
  40140e:	8b 44 24 0c          	mov    0xc(%rsp),%eax
  401412:	69 c0 4f f1 00 00    	imul   $0xf14f,%eax,%eax
  401418:	89 44 24 0c          	mov    %eax,0xc(%rsp)
  40141c:	8b 44 24 1c          	mov    0x1c(%rsp),%eax
  401420:	69 c0 14 dc 00 00    	imul   $0xdc14,%eax,%eax
  401426:	89 44 24 1c          	mov    %eax,0x1c(%rsp)
  40142a:	8b 44 24 1c          	mov    0x1c(%rsp),%eax
  40142e:	69 c0 62 6a 00 00    	imul   $0x6a62,%eax,%eax
  401434:	89 44 24 1c          	mov    %eax,0x1c(%rsp)
  401438:	8b 44 24 20          	mov    0x20(%rsp),%eax
  40143c:	69 c0 0c d5 00 00    	imul   $0xd50c,%eax,%eax
  401442:	89 44 24 20          	mov    %eax,0x20(%rsp)
  401446:	8b 44 24 04          	mov    0x4(%rsp),%eax
  40144a:	69 c0 37 29 00 00    	imul   $0x2937,%eax,%eax
  401450:	89 44 24 04          	mov    %eax,0x4(%rsp)
  401454:	8b 44 24 04          	mov    0x4(%rsp),%eax
  401458:	69 c0 bc d0 00 00    	imul   $0xd0bc,%eax,%eax
  40145e:	89 44 24 04          	mov    %eax,0x4(%rsp)
  401462:	8b 44 24 14          	mov    0x14(%rsp),%eax
  401466:	69 c0 12 49 00 00    	imul   $0x4912,%eax,%eax
  40146c:	89 44 24 14          	mov    %eax,0x14(%rsp)
  401470:	8b 44 24 1c          	mov    0x1c(%rsp),%eax
  401474:	69 c0 95 6a 00 00    	imul   $0x6a95,%eax,%eax
  40147a:	89 44 24 1c          	mov    %eax,0x1c(%rsp)
  40147e:	8b 44 24 14          	mov    0x14(%rsp),%eax
  401482:	69 c0 7d 23 00 00    	imul   $0x237d,%eax,%eax
  401488:	89 44 24 14          	mov    %eax,0x14(%rsp)
  40148c:	8b 44 24 0c          	mov    0xc(%rsp),%eax
  401490:	69 c0 13 c1 00 00    	imul   $0xc113,%eax,%eax
  401496:	89 44 24 0c          	mov    %eax,0xc(%rsp)
  40149a:	8b 44 24 1c          	mov    0x1c(%rsp),%eax
  40149e:	69 c0 7d f6 00 00    	imul   $0xf67d,%eax,%eax
  4014a4:	89 44 24 1c          	mov    %eax,0x1c(%rsp)
  4014a8:	8b 44 24 14          	mov    0x14(%rsp),%eax
  4014ac:	69 c0 71 bc 00 00    	imul   $0xbc71,%eax,%eax
  4014b2:	89 44 24 14          	mov    %eax,0x14(%rsp)
  4014b6:	8b 44 24 14          	mov    0x14(%rsp),%eax
  4014ba:	69 c0 9d d8 00 00    	imul   $0xd89d,%eax,%eax
  4014c0:	89 44 24 14          	mov    %eax,0x14(%rsp)
  4014c4:	8b 44 24 0c          	mov    0xc(%rsp),%eax
  4014c8:	69 c0 ce 3e 00 00    	imul   $0x3ece,%eax,%eax
  4014ce:	89 44 24 0c          	mov    %eax,0xc(%rsp)
  4014d2:	8b 44 24 0c          	mov    0xc(%rsp),%eax
  4014d6:	69 c0 f4 3a 00 00    	imul   $0x3af4,%eax,%eax
  4014dc:	89 44 24 0c          	mov    %eax,0xc(%rsp)
  4014e0:	8b 44 24 0c          	mov    0xc(%rsp),%eax
  4014e4:	69 c0 d9 82 00 00    	imul   $0x82d9,%eax,%eax
  4014ea:	89 44 24 0c          	mov    %eax,0xc(%rsp)
  4014ee:	8b 44 24 24          	mov    0x24(%rsp),%eax
  4014f2:	69 c0 ab c7 00 00    	imul   $0xc7ab,%eax,%eax
  4014f8:	89 44 24 24          	mov    %eax,0x24(%rsp)
  4014fc:	8b 44 24 0c          	mov    0xc(%rsp),%eax
  401500:	69 c0 72 59 00 00    	imul   $0x5972,%eax,%eax
  401506:	89 44 24 0c          	mov    %eax,0xc(%rsp)
  40150a:	8b 44 24 1c          	mov    0x1c(%rsp),%eax
  40150e:	69 c0 1c 18 00 00    	imul   $0x181c,%eax,%eax
  401514:	89 44 24 1c          	mov    %eax,0x1c(%rsp)
  401518:	8b 44 24 20          	mov    0x20(%rsp),%eax
  40151c:	69 c0 d9 36 00 00    	imul   $0x36d9,%eax,%eax
  401522:	89 44 24 20          	mov    %eax,0x20(%rsp)
  401526:	8b 44 24 0c          	mov    0xc(%rsp),%eax
  40152a:	69 c0 f8 7a 00 00    	imul   $0x7af8,%eax,%eax
  401530:	89 44 24 0c          	mov    %eax,0xc(%rsp)
  401534:	8b 04 24             	mov    (%rsp),%eax
  401537:	69 c0 bb 04 00 00    	imul   $0x4bb,%eax,%eax
  40153d:	89 04 24             	mov    %eax,(%rsp)
  401540:	8b 44 24 10          	mov    0x10(%rsp),%eax
  401544:	69 c0 12 6e 00 00    	imul   $0x6e12,%eax,%eax
  40154a:	89 44 24 10          	mov    %eax,0x10(%rsp)
  40154e:	8b 44 24 0c          	mov    0xc(%rsp),%eax
  401552:	69 c0 7f ad 00 00    	imul   $0xad7f,%eax,%eax
  401558:	89 44 24 0c          	mov    %eax,0xc(%rsp)
  40155c:	8b 44 24 10          	mov    0x10(%rsp),%eax
  401560:	69 c0 e9 4c 00 00    	imul   $0x4ce9,%eax,%eax
  401566:	89 44 24 10          	mov    %eax,0x10(%rsp)
  40156a:	8b 44 24 20          	mov    0x20(%rsp),%eax
  40156e:	69 c0 26 6b 00 00    	imul   $0x6b26,%eax,%eax
  401574:	89 44 24 20          	mov    %eax,0x20(%rsp)
  401578:	8b 44 24 24          	mov    0x24(%rsp),%eax
  40157c:	69 c0 c1 b5 00 00    	imul   $0xb5c1,%eax,%eax
  401582:	89 44 24 24          	mov    %eax,0x24(%rsp)
  401586:	8b 44 24 1c          	mov    0x1c(%rsp),%eax
  40158a:	69 c0 07 a0 00 00    	imul   $0xa007,%eax,%eax
  401590:	89 44 24 1c          	mov    %eax,0x1c(%rsp)
  401594:	8b 44 24 18          	mov    0x18(%rsp),%eax
  401598:	69 c0 d6 b1 00 00    	imul   $0xb1d6,%eax,%eax
  40159e:	89 44 24 18          	mov    %eax,0x18(%rsp)
  4015a2:	8b 44 24 10          	mov    0x10(%rsp),%eax
  4015a6:	69 c0 cc 3d 00 00    	imul   $0x3dcc,%eax,%eax
  4015ac:	89 44 24 10          	mov    %eax,0x10(%rsp)
  4015b0:	8b 44 24 24          	mov    0x24(%rsp),%eax
  4015b4:	69 c0 07 0f 00 00    	imul   $0xf07,%eax,%eax
  4015ba:	89 44 24 24          	mov    %eax,0x24(%rsp)
  4015be:	8b 44 24 20          	mov    0x20(%rsp),%eax
  4015c2:	69 c0 0e 19 00 00    	imul   $0x190e,%eax,%eax
  4015c8:	89 44 24 20          	mov    %eax,0x20(%rsp)
  4015cc:	8b 44 24 08          	mov    0x8(%rsp),%eax
  4015d0:	69 c0 92 1f 00 00    	imul   $0x1f92,%eax,%eax
  4015d6:	89 44 24 08          	mov    %eax,0x8(%rsp)
  4015da:	8b 44 24 18          	mov    0x18(%rsp),%eax
  4015de:	69 c0 bf 08 00 00    	imul   $0x8bf,%eax,%eax
  4015e4:	89 44 24 18          	mov    %eax,0x18(%rsp)
  4015e8:	8b 44 24 18          	mov    0x18(%rsp),%eax
  4015ec:	69 c0 ff a0 00 00    	imul   $0xa0ff,%eax,%eax
  4015f2:	89 44 24 18          	mov    %eax,0x18(%rsp)
  4015f6:	8b 44 24 24          	mov    0x24(%rsp),%eax
  4015fa:	69 c0 02 79 00 00    	imul   $0x7902,%eax,%eax
  401600:	89 44 24 24          	mov    %eax,0x24(%rsp)
  401604:	8b 44 24 18          	mov    0x18(%rsp),%eax
  401608:	69 c0 2d 47 00 00    	imul   $0x472d,%eax,%eax
  40160e:	89 44 24 18          	mov    %eax,0x18(%rsp)
  401612:	8b 44 24 04          	mov    0x4(%rsp),%eax
  401616:	69 c0 02 e0 00 00    	imul   $0xe002,%eax,%eax
  40161c:	89 44 24 04          	mov    %eax,0x4(%rsp)
  401620:	8b 44 24 24          	mov    0x24(%rsp),%eax
  401624:	69 c0 0e ed 00 00    	imul   $0xed0e,%eax,%eax
  40162a:	89 44 24 24          	mov    %eax,0x24(%rsp)
  40162e:	8b 44 24 08          	mov    0x8(%rsp),%eax
  401632:	69 c0 ce 46 00 00    	imul   $0x46ce,%eax,%eax
  401638:	89 44 24 08          	mov    %eax,0x8(%rsp)
  40163c:	8b 44 24 10          	mov    0x10(%rsp),%eax
  401640:	69 c0 14 fc 00 00    	imul   $0xfc14,%eax,%eax
  401646:	89 44 24 10          	mov    %eax,0x10(%rsp)
  40164a:	8b 44 24 24          	mov    0x24(%rsp),%eax
  40164e:	69 c0 5e 7d 00 00    	imul   $0x7d5e,%eax,%eax
  401654:	89 44 24 24          	mov    %eax,0x24(%rsp)
  401658:	8b 44 24 20          	mov    0x20(%rsp),%eax
  40165c:	69 c0 8b d9 00 00    	imul   $0xd98b,%eax,%eax
  401662:	89 44 24 20          	mov    %eax,0x20(%rsp)
  401666:	8b 44 24 1c          	mov    0x1c(%rsp),%eax
  40166a:	69 c0 34 40 00 00    	imul   $0x4034,%eax,%eax
  401670:	89 44 24 1c          	mov    %eax,0x1c(%rsp)
  401674:	8b 04 24             	mov    (%rsp),%eax
  401677:	69 c0 3c fc 00 00    	imul   $0xfc3c,%eax,%eax
  40167d:	89 04 24             	mov    %eax,(%rsp)
  401680:	8b 44 24 1c          	mov    0x1c(%rsp),%eax
  401684:	69 c0 2c 78 00 00    	imul   $0x782c,%eax,%eax
  40168a:	89 44 24 1c          	mov    %eax,0x1c(%rsp)
  40168e:	8b 44 24 08          	mov    0x8(%rsp),%eax
  401692:	69 c0 a5 3e 00 00    	imul   $0x3ea5,%eax,%eax
  401698:	89 44 24 08          	mov    %eax,0x8(%rsp)
  40169c:	8b 44 24 1c          	mov    0x1c(%rsp),%eax
  4016a0:	69 c0 f6 e1 00 00    	imul   $0xe1f6,%eax,%eax
  4016a6:	89 44 24 1c          	mov    %eax,0x1c(%rsp)
  4016aa:	8b 44 24 04          	mov    0x4(%rsp),%eax
  4016ae:	69 c0 ba 03 00 00    	imul   $0x3ba,%eax,%eax
  4016b4:	89 44 24 04          	mov    %eax,0x4(%rsp)
  4016b8:	8b 44 24 18          	mov    0x18(%rsp),%eax
  4016bc:	69 c0 e6 95 00 00    	imul   $0x95e6,%eax,%eax
  4016c2:	89 44 24 18          	mov    %eax,0x18(%rsp)
  4016c6:	8b 04 24             	mov    (%rsp),%eax
  4016c9:	69 c0 4e 2a 00 00    	imul   $0x2a4e,%eax,%eax
  4016cf:	89 04 24             	mov    %eax,(%rsp)
  4016d2:	8b 44 24 04          	mov    0x4(%rsp),%eax
  4016d6:	69 c0 b1 c0 00 00    	imul   $0xc0b1,%eax,%eax
  4016dc:	89 44 24 04          	mov    %eax,0x4(%rsp)
  4016e0:	8b 44 24 1c          	mov    0x1c(%rsp),%eax
  4016e4:	69 c0 a6 8c 00 00    	imul   $0x8ca6,%eax,%eax
  4016ea:	89 44 24 1c          	mov    %eax,0x1c(%rsp)
  4016ee:	8b 44 24 1c          	mov    0x1c(%rsp),%eax
  4016f2:	69 c0 bb 26 00 00    	imul   $0x26bb,%eax,%eax
  4016f8:	89 44 24 1c          	mov    %eax,0x1c(%rsp)
  4016fc:	8b 44 24 04          	mov    0x4(%rsp),%eax
  401700:	69 c0 35 2e 00 00    	imul   $0x2e35,%eax,%eax
  401706:	89 44 24 04          	mov    %eax,0x4(%rsp)
  40170a:	8b 44 24 14          	mov    0x14(%rsp),%eax
  40170e:	69 c0 ad b3 00 00    	imul   $0xb3ad,%eax,%eax
  401714:	89 44 24 14          	mov    %eax,0x14(%rsp)
  401718:	8b 44 24 0c          	mov    0xc(%rsp),%eax
  40171c:	69 c0 7e 1f 00 00    	imul   $0x1f7e,%eax,%eax
  401722:	89 44 24 0c          	mov    %eax,0xc(%rsp)
  401726:	8b 44 24 04          	mov    0x4(%rsp),%eax
  40172a:	69 c0 1e dc 00 00    	imul   $0xdc1e,%eax,%eax
  401730:	89 44 24 04          	mov    %eax,0x4(%rsp)
  401734:	8b 44 24 0c          	mov    0xc(%rsp),%eax
  401738:	69 c0 71 4e 00 00    	imul   $0x4e71,%eax,%eax
  40173e:	89 44 24 0c          	mov    %eax,0xc(%rsp)
  401742:	8b 44 24 1c          	mov    0x1c(%rsp),%eax
  401746:	69 c0 6b 84 00 00    	imul   $0x846b,%eax,%eax
  40174c:	89 44 24 1c          	mov    %eax,0x1c(%rsp)
  401750:	8b 44 24 14          	mov    0x14(%rsp),%eax
  401754:	69 c0 53 9a 00 00    	imul   $0x9a53,%eax,%eax
  40175a:	89 44 24 14          	mov    %eax,0x14(%rsp)
  40175e:	8b 44 24 14          	mov    0x14(%rsp),%eax
  401762:	69 c0 f1 55 00 00    	imul   $0x55f1,%eax,%eax
  401768:	89 44 24 14          	mov    %eax,0x14(%rsp)
  40176c:	8b 44 24 0c          	mov    0xc(%rsp),%eax
  401770:	69 c0 d1 8d 00 00    	imul   $0x8dd1,%eax,%eax
  401776:	89 44 24 0c          	mov    %eax,0xc(%rsp)
  40177a:	8b 44 24 0c          	mov    0xc(%rsp),%eax
  40177e:	69 c0 30 37 00 00    	imul   $0x3730,%eax,%eax
  401784:	89 44 24 0c          	mov    %eax,0xc(%rsp)
  401788:	8b 04 24             	mov    (%rsp),%eax
  40178b:	69 c0 9c 22 00 00    	imul   $0x229c,%eax,%eax
  401791:	89 04 24             	mov    %eax,(%rsp)
  401794:	8b 44 24 10          	mov    0x10(%rsp),%eax
  401798:	69 c0 45 36 00 00    	imul   $0x3645,%eax,%eax
  40179e:	89 44 24 10          	mov    %eax,0x10(%rsp)
  4017a2:	8b 44 24 14          	mov    0x14(%rsp),%eax
  4017a6:	69 c0 ff db 00 00    	imul   $0xdbff,%eax,%eax
  4017ac:	89 44 24 14          	mov    %eax,0x14(%rsp)
  4017b0:	8b 44 24 1c          	mov    0x1c(%rsp),%eax
  4017b4:	69 c0 66 be 00 00    	imul   $0xbe66,%eax,%eax
  4017ba:	89 44 24 1c          	mov    %eax,0x1c(%rsp)
  4017be:	8b 44 24 14          	mov    0x14(%rsp),%eax
  4017c2:	69 c0 aa 97 00 00    	imul   $0x97aa,%eax,%eax
  4017c8:	89 44 24 14          	mov    %eax,0x14(%rsp)
  4017cc:	8b 44 24 0c          	mov    0xc(%rsp),%eax
  4017d0:	69 c0 5a e2 00 00    	imul   $0xe25a,%eax,%eax
  4017d6:	89 44 24 0c          	mov    %eax,0xc(%rsp)
  4017da:	8b 44 24 24          	mov    0x24(%rsp),%eax
  4017de:	69 c0 aa 52 00 00    	imul   $0x52aa,%eax,%eax
  4017e4:	89 44 24 24          	mov    %eax,0x24(%rsp)
  4017e8:	8b 44 24 18          	mov    0x18(%rsp),%eax
  4017ec:	69 c0 28 f0 00 00    	imul   $0xf028,%eax,%eax
  4017f2:	89 44 24 18          	mov    %eax,0x18(%rsp)
  4017f6:	8b 44 24 14          	mov    0x14(%rsp),%eax
  4017fa:	69 c0 13 c7 00 00    	imul   $0xc713,%eax,%eax
  401800:	89 44 24 14          	mov    %eax,0x14(%rsp)
  401804:	8b 44 24 18          	mov    0x18(%rsp),%eax
  401808:	69 c0 32 6b 00 00    	imul   $0x6b32,%eax,%eax
  40180e:	89 44 24 18          	mov    %eax,0x18(%rsp)
  401812:	8b 44 24 04          	mov    0x4(%rsp),%eax
  401816:	69 c0 9a e8 00 00    	imul   $0xe89a,%eax,%eax
  40181c:	89 44 24 04          	mov    %eax,0x4(%rsp)
  401820:	8b 44 24 14          	mov    0x14(%rsp),%eax
  401824:	69 c0 32 60 00 00    	imul   $0x6032,%eax,%eax
  40182a:	89 44 24 14          	mov    %eax,0x14(%rsp)
  40182e:	8b 44 24 04          	mov    0x4(%rsp),%eax
  401832:	69 c0 34 ec 00 00    	imul   $0xec34,%eax,%eax
  401838:	89 44 24 04          	mov    %eax,0x4(%rsp)
  40183c:	8b 44 24 14          	mov    0x14(%rsp),%eax
  401840:	69 c0 e6 5b 00 00    	imul   $0x5be6,%eax,%eax
  401846:	89 44 24 14          	mov    %eax,0x14(%rsp)
  40184a:	8b 44 24 1c          	mov    0x1c(%rsp),%eax
  40184e:	69 c0 0a ee 00 00    	imul   $0xee0a,%eax,%eax
  401854:	89 44 24 1c          	mov    %eax,0x1c(%rsp)
  401858:	8b 04 24             	mov    (%rsp),%eax
  40185b:	69 c0 90 0b 00 00    	imul   $0xb90,%eax,%eax
  401861:	89 04 24             	mov    %eax,(%rsp)
  401864:	8b 04 24             	mov    (%rsp),%eax
  401867:	69 c0 2d 60 00 00    	imul   $0x602d,%eax,%eax
  40186d:	89 04 24             	mov    %eax,(%rsp)
  401870:	8b 44 24 20          	mov    0x20(%rsp),%eax
  401874:	69 c0 91 5d 00 00    	imul   $0x5d91,%eax,%eax
  40187a:	89 44 24 20          	mov    %eax,0x20(%rsp)
  40187e:	8b 44 24 14          	mov    0x14(%rsp),%eax
  401882:	69 c0 cd 38 00 00    	imul   $0x38cd,%eax,%eax
  401888:	89 44 24 14          	mov    %eax,0x14(%rsp)
  40188c:	8b 44 24 04          	mov    0x4(%rsp),%eax
  401890:	69 c0 d2 a4 00 00    	imul   $0xa4d2,%eax,%eax
  401896:	89 44 24 04          	mov    %eax,0x4(%rsp)
  40189a:	ba 00 00 00 00       	mov    $0x0,%edx
  40189f:	b8 00 00 00 00       	mov    $0x0,%eax
  4018a4:	eb 0a                	jmp    4018b0 <scramble+0x571>
  4018a6:	89 d1                	mov    %edx,%ecx
  4018a8:	8b 0c 8c             	mov    (%rsp,%rcx,4),%ecx
  4018ab:	01 c8                	add    %ecx,%eax
  4018ad:	83 c2 01             	add    $0x1,%edx
  4018b0:	83 fa 09             	cmp    $0x9,%edx
  4018b3:	76 f1                	jbe    4018a6 <scramble+0x567>
  4018b5:	48 8b 74 24 28       	mov    0x28(%rsp),%rsi
  4018ba:	64 48 33 34 25 28 00 	xor    %fs:0x28,%rsi
  4018c1:	00 00 
  4018c3:	75 05                	jne    4018ca <scramble+0x58b>
  4018c5:	48 83 c4 38          	add    $0x38,%rsp
  4018c9:	c3                   	retq   
  4018ca:	e8 11 f4 ff ff       	callq  400ce0 <__stack_chk_fail@plt>

00000000004018cf <getbuf>:
  4018cf:	48 83 ec 28          	sub    $0x28,%rsp
  4018d3:	48 89 e7             	mov    %rsp,%rdi
  4018d6:	e8 7e 02 00 00       	callq  401b59 <Gets>
  4018db:	b8 01 00 00 00       	mov    $0x1,%eax
  4018e0:	48 83 c4 28          	add    $0x28,%rsp
  4018e4:	c3                   	retq   

00000000004018e5 <touch1>:
  4018e5:	48 83 ec 08          	sub    $0x8,%rsp
  4018e9:	c7 05 09 3c 20 00 01 	movl   $0x1,0x203c09(%rip)        # 6054fc <vlevel>
  4018f0:	00 00 00 
  4018f3:	bf 5f 32 40 00       	mov    $0x40325f,%edi
  4018f8:	e8 c3 f3 ff ff       	callq  400cc0 <puts@plt>
  4018fd:	bf 01 00 00 00       	mov    $0x1,%edi
  401902:	e8 a7 04 00 00       	callq  401dae <validate>
  401907:	bf 00 00 00 00       	mov    $0x0,%edi
  40190c:	e8 1f f5 ff ff       	callq  400e30 <exit@plt>

0000000000401911 <touch2>:
  401911:	48 83 ec 08          	sub    $0x8,%rsp
  401915:	89 fa                	mov    %edi,%edx
  401917:	c7 05 db 3b 20 00 02 	movl   $0x2,0x203bdb(%rip)        # 6054fc <vlevel>
  40191e:	00 00 00 
  401921:	39 3d dd 3b 20 00    	cmp    %edi,0x203bdd(%rip)        # 605504 <cookie>
  401927:	74 28                	je     401951 <touch2+0x40>
  401929:	be b0 32 40 00       	mov    $0x4032b0,%esi
  40192e:	bf 01 00 00 00       	mov    $0x1,%edi
  401933:	b8 00 00 00 00       	mov    $0x0,%eax
  401938:	e8 a3 f4 ff ff       	callq  400de0 <__printf_chk@plt>
  40193d:	bf 02 00 00 00       	mov    $0x2,%edi
  401942:	e8 2c 05 00 00       	callq  401e73 <fail>
  401947:	bf 00 00 00 00       	mov    $0x0,%edi
  40194c:	e8 df f4 ff ff       	callq  400e30 <exit@plt>
  401951:	be 88 32 40 00       	mov    $0x403288,%esi
  401956:	bf 01 00 00 00       	mov    $0x1,%edi
  40195b:	b8 00 00 00 00       	mov    $0x0,%eax
  401960:	e8 7b f4 ff ff       	callq  400de0 <__printf_chk@plt>
  401965:	bf 02 00 00 00       	mov    $0x2,%edi
  40196a:	e8 3f 04 00 00       	callq  401dae <validate>
  40196f:	eb d6                	jmp    401947 <touch2+0x36>

0000000000401971 <hexmatch>:
  401971:	41 54                	push   %r12
  401973:	55                   	push   %rbp
  401974:	53                   	push   %rbx
  401975:	48 83 c4 80          	add    $0xffffffffffffff80,%rsp
  401979:	89 fd                	mov    %edi,%ebp
  40197b:	48 89 f3             	mov    %rsi,%rbx
  40197e:	64 48 8b 04 25 28 00 	mov    %fs:0x28,%rax
  401985:	00 00 
  401987:	48 89 44 24 78       	mov    %rax,0x78(%rsp)
  40198c:	31 c0                	xor    %eax,%eax
  40198e:	e8 0d f4 ff ff       	callq  400da0 <random@plt>
  401993:	48 89 c1             	mov    %rax,%rcx
  401996:	48 ba 0b d7 a3 70 3d 	movabs $0xa3d70a3d70a3d70b,%rdx
  40199d:	0a d7 a3 
  4019a0:	48 f7 ea             	imul   %rdx
  4019a3:	48 01 ca             	add    %rcx,%rdx
  4019a6:	48 c1 fa 06          	sar    $0x6,%rdx
  4019aa:	48 89 c8             	mov    %rcx,%rax
  4019ad:	48 c1 f8 3f          	sar    $0x3f,%rax
  4019b1:	48 29 c2             	sub    %rax,%rdx
  4019b4:	48 8d 04 92          	lea    (%rdx,%rdx,4),%rax
  4019b8:	48 8d 14 80          	lea    (%rax,%rax,4),%rdx
  4019bc:	48 8d 04 95 00 00 00 	lea    0x0(,%rdx,4),%rax
  4019c3:	00 
  4019c4:	48 29 c1             	sub    %rax,%rcx
  4019c7:	4c 8d 24 0c          	lea    (%rsp,%rcx,1),%r12
  4019cb:	41 89 e8             	mov    %ebp,%r8d
  4019ce:	b9 7c 32 40 00       	mov    $0x40327c,%ecx
  4019d3:	48 c7 c2 ff ff ff ff 	mov    $0xffffffffffffffff,%rdx
  4019da:	be 01 00 00 00       	mov    $0x1,%esi
  4019df:	4c 89 e7             	mov    %r12,%rdi
  4019e2:	b8 00 00 00 00       	mov    $0x0,%eax
  4019e7:	e8 74 f4 ff ff       	callq  400e60 <__sprintf_chk@plt>
  4019ec:	ba 09 00 00 00       	mov    $0x9,%edx
  4019f1:	4c 89 e6             	mov    %r12,%rsi
  4019f4:	48 89 df             	mov    %rbx,%rdi
  4019f7:	e8 a4 f2 ff ff       	callq  400ca0 <strncmp@plt>
  4019fc:	85 c0                	test   %eax,%eax
  4019fe:	0f 94 c0             	sete   %al
  401a01:	48 8b 5c 24 78       	mov    0x78(%rsp),%rbx
  401a06:	64 48 33 1c 25 28 00 	xor    %fs:0x28,%rbx
  401a0d:	00 00 
  401a0f:	75 0c                	jne    401a1d <hexmatch+0xac>
  401a11:	0f b6 c0             	movzbl %al,%eax
  401a14:	48 83 ec 80          	sub    $0xffffffffffffff80,%rsp
  401a18:	5b                   	pop    %rbx
  401a19:	5d                   	pop    %rbp
  401a1a:	41 5c                	pop    %r12
  401a1c:	c3                   	retq   
  401a1d:	e8 be f2 ff ff       	callq  400ce0 <__stack_chk_fail@plt>

0000000000401a22 <touch3>:
  401a22:	53                   	push   %rbx
  401a23:	48 89 fb             	mov    %rdi,%rbx
  401a26:	c7 05 cc 3a 20 00 03 	movl   $0x3,0x203acc(%rip)        # 6054fc <vlevel>
  401a2d:	00 00 00 
  401a30:	48 89 fe             	mov    %rdi,%rsi
  401a33:	8b 3d cb 3a 20 00    	mov    0x203acb(%rip),%edi        # 605504 <cookie>
  401a39:	e8 33 ff ff ff       	callq  401971 <hexmatch>
  401a3e:	85 c0                	test   %eax,%eax
  401a40:	74 2b                	je     401a6d <touch3+0x4b>
  401a42:	48 89 da             	mov    %rbx,%rdx
  401a45:	be d8 32 40 00       	mov    $0x4032d8,%esi
  401a4a:	bf 01 00 00 00       	mov    $0x1,%edi
  401a4f:	b8 00 00 00 00       	mov    $0x0,%eax
  401a54:	e8 87 f3 ff ff       	callq  400de0 <__printf_chk@plt>
  401a59:	bf 03 00 00 00       	mov    $0x3,%edi
  401a5e:	e8 4b 03 00 00       	callq  401dae <validate>
  401a63:	bf 00 00 00 00       	mov    $0x0,%edi
  401a68:	e8 c3 f3 ff ff       	callq  400e30 <exit@plt>
  401a6d:	48 89 da             	mov    %rbx,%rdx
  401a70:	be 00 33 40 00       	mov    $0x403300,%esi
  401a75:	bf 01 00 00 00       	mov    $0x1,%edi
  401a7a:	b8 00 00 00 00       	mov    $0x0,%eax
  401a7f:	e8 5c f3 ff ff       	callq  400de0 <__printf_chk@plt>
  401a84:	bf 03 00 00 00       	mov    $0x3,%edi
  401a89:	e8 e5 03 00 00       	callq  401e73 <fail>
  401a8e:	eb d3                	jmp    401a63 <touch3+0x41>

0000000000401a90 <test>:
  401a90:	48 83 ec 08          	sub    $0x8,%rsp
  401a94:	b8 00 00 00 00       	mov    $0x0,%eax
  401a99:	e8 31 fe ff ff       	callq  4018cf <getbuf>
  401a9e:	89 c2                	mov    %eax,%edx
  401aa0:	be 28 33 40 00       	mov    $0x403328,%esi
  401aa5:	bf 01 00 00 00       	mov    $0x1,%edi
  401aaa:	b8 00 00 00 00       	mov    $0x0,%eax
  401aaf:	e8 2c f3 ff ff       	callq  400de0 <__printf_chk@plt>
  401ab4:	48 83 c4 08          	add    $0x8,%rsp
  401ab8:	c3                   	retq   

0000000000401ab9 <save_char>:
  401ab9:	8b 05 65 46 20 00    	mov    0x204665(%rip),%eax        # 606124 <gets_cnt>
  401abf:	3d ff 03 00 00       	cmp    $0x3ff,%eax
  401ac4:	7f 49                	jg     401b0f <save_char+0x56>
  401ac6:	89 f9                	mov    %edi,%ecx
  401ac8:	c0 e9 04             	shr    $0x4,%cl
  401acb:	8d 14 40             	lea    (%rax,%rax,2),%edx
  401ace:	83 e1 0f             	and    $0xf,%ecx
  401ad1:	0f b6 b1 50 36 40 00 	movzbl 0x403650(%rcx),%esi
  401ad8:	48 63 ca             	movslq %edx,%rcx
  401adb:	40 88 b1 20 55 60 00 	mov    %sil,0x605520(%rcx)
  401ae2:	8d 4a 01             	lea    0x1(%rdx),%ecx
  401ae5:	83 e7 0f             	and    $0xf,%edi
  401ae8:	0f b6 b7 50 36 40 00 	movzbl 0x403650(%rdi),%esi
  401aef:	48 63 c9             	movslq %ecx,%rcx
  401af2:	40 88 b1 20 55 60 00 	mov    %sil,0x605520(%rcx)
  401af9:	83 c2 02             	add    $0x2,%edx
  401afc:	48 63 d2             	movslq %edx,%rdx
  401aff:	c6 82 20 55 60 00 20 	movb   $0x20,0x605520(%rdx)
  401b06:	83 c0 01             	add    $0x1,%eax
  401b09:	89 05 15 46 20 00    	mov    %eax,0x204615(%rip)        # 606124 <gets_cnt>
  401b0f:	f3 c3                	repz retq 

0000000000401b11 <save_term>:
  401b11:	8b 05 0d 46 20 00    	mov    0x20460d(%rip),%eax        # 606124 <gets_cnt>
  401b17:	8d 04 40             	lea    (%rax,%rax,2),%eax
  401b1a:	48 98                	cltq   
  401b1c:	c6 80 20 55 60 00 00 	movb   $0x0,0x605520(%rax)
  401b23:	c3                   	retq   

0000000000401b24 <check_fail>:
  401b24:	48 83 ec 08          	sub    $0x8,%rsp
  401b28:	0f be 15 f9 45 20 00 	movsbl 0x2045f9(%rip),%edx        # 606128 <target_prefix>
  401b2f:	41 b8 20 55 60 00    	mov    $0x605520,%r8d
  401b35:	8b 0d bd 39 20 00    	mov    0x2039bd(%rip),%ecx        # 6054f8 <check_level>
  401b3b:	be 4b 33 40 00       	mov    $0x40334b,%esi
  401b40:	bf 01 00 00 00       	mov    $0x1,%edi
  401b45:	b8 00 00 00 00       	mov    $0x0,%eax
  401b4a:	e8 91 f2 ff ff       	callq  400de0 <__printf_chk@plt>
  401b4f:	bf 01 00 00 00       	mov    $0x1,%edi
  401b54:	e8 d7 f2 ff ff       	callq  400e30 <exit@plt>

0000000000401b59 <Gets>:
  401b59:	41 54                	push   %r12
  401b5b:	55                   	push   %rbp
  401b5c:	53                   	push   %rbx
  401b5d:	49 89 fc             	mov    %rdi,%r12
  401b60:	c7 05 ba 45 20 00 00 	movl   $0x0,0x2045ba(%rip)        # 606124 <gets_cnt>
  401b67:	00 00 00 
  401b6a:	48 89 fb             	mov    %rdi,%rbx
  401b6d:	eb 11                	jmp    401b80 <Gets+0x27>
  401b6f:	48 8d 6b 01          	lea    0x1(%rbx),%rbp
  401b73:	88 03                	mov    %al,(%rbx)
  401b75:	0f b6 f8             	movzbl %al,%edi
  401b78:	e8 3c ff ff ff       	callq  401ab9 <save_char>
  401b7d:	48 89 eb             	mov    %rbp,%rbx
  401b80:	48 8b 3d 69 39 20 00 	mov    0x203969(%rip),%rdi        # 6054f0 <infile>
  401b87:	e8 24 f2 ff ff       	callq  400db0 <_IO_getc@plt>
  401b8c:	83 f8 ff             	cmp    $0xffffffff,%eax
  401b8f:	74 05                	je     401b96 <Gets+0x3d>
  401b91:	83 f8 0a             	cmp    $0xa,%eax
  401b94:	75 d9                	jne    401b6f <Gets+0x16>
  401b96:	c6 03 00             	movb   $0x0,(%rbx)
  401b99:	b8 00 00 00 00       	mov    $0x0,%eax
  401b9e:	e8 6e ff ff ff       	callq  401b11 <save_term>
  401ba3:	4c 89 e0             	mov    %r12,%rax
  401ba6:	5b                   	pop    %rbx
  401ba7:	5d                   	pop    %rbp
  401ba8:	41 5c                	pop    %r12
  401baa:	c3                   	retq   

0000000000401bab <notify_server>:
  401bab:	55                   	push   %rbp
  401bac:	53                   	push   %rbx
  401bad:	48 81 ec 18 40 00 00 	sub    $0x4018,%rsp
  401bb4:	64 48 8b 04 25 28 00 	mov    %fs:0x28,%rax
  401bbb:	00 00 
  401bbd:	48 89 84 24 08 40 00 	mov    %rax,0x4008(%rsp)
  401bc4:	00 
  401bc5:	31 c0                	xor    %eax,%eax
  401bc7:	83 3d 3a 39 20 00 00 	cmpl   $0x0,0x20393a(%rip)        # 605508 <is_checker>
  401bce:	0f 85 c9 00 00 00    	jne    401c9d <notify_server+0xf2>
  401bd4:	89 fb                	mov    %edi,%ebx
  401bd6:	8b 05 48 45 20 00    	mov    0x204548(%rip),%eax        # 606124 <gets_cnt>
  401bdc:	83 c0 64             	add    $0x64,%eax
  401bdf:	3d 00 20 00 00       	cmp    $0x2000,%eax
  401be4:	0f 8f d4 00 00 00    	jg     401cbe <notify_server+0x113>
  401bea:	0f be 05 37 45 20 00 	movsbl 0x204537(%rip),%eax        # 606128 <target_prefix>
  401bf1:	83 3d 90 38 20 00 00 	cmpl   $0x0,0x203890(%rip)        # 605488 <notify>
  401bf8:	0f 84 de 00 00 00    	je     401cdc <notify_server+0x131>
  401bfe:	8b 15 fc 38 20 00    	mov    0x2038fc(%rip),%edx        # 605500 <authkey>
  401c04:	85 db                	test   %ebx,%ebx
  401c06:	0f 84 da 00 00 00    	je     401ce6 <notify_server+0x13b>
  401c0c:	bd 61 33 40 00       	mov    $0x403361,%ebp
  401c11:	68 20 55 60 00       	pushq  $0x605520
  401c16:	56                   	push   %rsi
  401c17:	50                   	push   %rax
  401c18:	52                   	push   %rdx
  401c19:	49 89 e9             	mov    %rbp,%r9
  401c1c:	44 8b 05 25 35 20 00 	mov    0x203525(%rip),%r8d        # 605148 <target_id>
  401c23:	b9 6b 33 40 00       	mov    $0x40336b,%ecx
  401c28:	ba 00 20 00 00       	mov    $0x2000,%edx
  401c2d:	be 01 00 00 00       	mov    $0x1,%esi
  401c32:	48 8d 7c 24 20       	lea    0x20(%rsp),%rdi
  401c37:	b8 00 00 00 00       	mov    $0x0,%eax
  401c3c:	e8 1f f2 ff ff       	callq  400e60 <__sprintf_chk@plt>
  401c41:	48 83 c4 20          	add    $0x20,%rsp
  401c45:	83 3d 3c 38 20 00 00 	cmpl   $0x0,0x20383c(%rip)        # 605488 <notify>
  401c4c:	0f 84 d3 00 00 00    	je     401d25 <notify_server+0x17a>
  401c52:	85 db                	test   %ebx,%ebx
  401c54:	0f 84 bc 00 00 00    	je     401d16 <notify_server+0x16b>
  401c5a:	4c 8d 8c 24 00 20 00 	lea    0x2000(%rsp),%r9
  401c61:	00 
  401c62:	41 b8 00 00 00 00    	mov    $0x0,%r8d
  401c68:	48 89 e1             	mov    %rsp,%rcx
  401c6b:	48 8b 15 de 34 20 00 	mov    0x2034de(%rip),%rdx        # 605150 <lab>
  401c72:	48 8b 35 df 34 20 00 	mov    0x2034df(%rip),%rsi        # 605158 <course>
  401c79:	48 8b 3d c0 34 20 00 	mov    0x2034c0(%rip),%rdi        # 605140 <user_id>
  401c80:	e8 31 11 00 00       	callq  402db6 <driver_post>
  401c85:	85 c0                	test   %eax,%eax
  401c87:	78 67                	js     401cf0 <notify_server+0x145>
  401c89:	bf b0 34 40 00       	mov    $0x4034b0,%edi
  401c8e:	e8 2d f0 ff ff       	callq  400cc0 <puts@plt>
  401c93:	bf 93 33 40 00       	mov    $0x403393,%edi
  401c98:	e8 23 f0 ff ff       	callq  400cc0 <puts@plt>
  401c9d:	48 8b 84 24 08 40 00 	mov    0x4008(%rsp),%rax
  401ca4:	00 
  401ca5:	64 48 33 04 25 28 00 	xor    %fs:0x28,%rax
  401cac:	00 00 
  401cae:	0f 85 f5 00 00 00    	jne    401da9 <notify_server+0x1fe>
  401cb4:	48 81 c4 18 40 00 00 	add    $0x4018,%rsp
  401cbb:	5b                   	pop    %rbx
  401cbc:	5d                   	pop    %rbp
  401cbd:	c3                   	retq   
  401cbe:	be 80 34 40 00       	mov    $0x403480,%esi
  401cc3:	bf 01 00 00 00       	mov    $0x1,%edi
  401cc8:	b8 00 00 00 00       	mov    $0x0,%eax
  401ccd:	e8 0e f1 ff ff       	callq  400de0 <__printf_chk@plt>
  401cd2:	bf 01 00 00 00       	mov    $0x1,%edi
  401cd7:	e8 54 f1 ff ff       	callq  400e30 <exit@plt>
  401cdc:	ba ff ff ff ff       	mov    $0xffffffff,%edx
  401ce1:	e9 1e ff ff ff       	jmpq   401c04 <notify_server+0x59>
  401ce6:	bd 66 33 40 00       	mov    $0x403366,%ebp
  401ceb:	e9 21 ff ff ff       	jmpq   401c11 <notify_server+0x66>
  401cf0:	48 8d 94 24 00 20 00 	lea    0x2000(%rsp),%rdx
  401cf7:	00 
  401cf8:	be 87 33 40 00       	mov    $0x403387,%esi
  401cfd:	bf 01 00 00 00       	mov    $0x1,%edi
  401d02:	b8 00 00 00 00       	mov    $0x0,%eax
  401d07:	e8 d4 f0 ff ff       	callq  400de0 <__printf_chk@plt>
  401d0c:	bf 01 00 00 00       	mov    $0x1,%edi
  401d11:	e8 1a f1 ff ff       	callq  400e30 <exit@plt>
  401d16:	bf 9d 33 40 00       	mov    $0x40339d,%edi
  401d1b:	e8 a0 ef ff ff       	callq  400cc0 <puts@plt>
  401d20:	e9 78 ff ff ff       	jmpq   401c9d <notify_server+0xf2>
  401d25:	48 89 ea             	mov    %rbp,%rdx
  401d28:	be e8 34 40 00       	mov    $0x4034e8,%esi
  401d2d:	bf 01 00 00 00       	mov    $0x1,%edi
  401d32:	b8 00 00 00 00       	mov    $0x0,%eax
  401d37:	e8 a4 f0 ff ff       	callq  400de0 <__printf_chk@plt>
  401d3c:	48 8b 15 fd 33 20 00 	mov    0x2033fd(%rip),%rdx        # 605140 <user_id>
  401d43:	be a4 33 40 00       	mov    $0x4033a4,%esi
  401d48:	bf 01 00 00 00       	mov    $0x1,%edi
  401d4d:	b8 00 00 00 00       	mov    $0x0,%eax
  401d52:	e8 89 f0 ff ff       	callq  400de0 <__printf_chk@plt>
  401d57:	48 8b 15 fa 33 20 00 	mov    0x2033fa(%rip),%rdx        # 605158 <course>
  401d5e:	be b1 33 40 00       	mov    $0x4033b1,%esi
  401d63:	bf 01 00 00 00       	mov    $0x1,%edi
  401d68:	b8 00 00 00 00       	mov    $0x0,%eax
  401d6d:	e8 6e f0 ff ff       	callq  400de0 <__printf_chk@plt>
  401d72:	48 8b 15 d7 33 20 00 	mov    0x2033d7(%rip),%rdx        # 605150 <lab>
  401d79:	be bd 33 40 00       	mov    $0x4033bd,%esi
  401d7e:	bf 01 00 00 00       	mov    $0x1,%edi
  401d83:	b8 00 00 00 00       	mov    $0x0,%eax
  401d88:	e8 53 f0 ff ff       	callq  400de0 <__printf_chk@plt>
  401d8d:	48 89 e2             	mov    %rsp,%rdx
  401d90:	be c6 33 40 00       	mov    $0x4033c6,%esi
  401d95:	bf 01 00 00 00       	mov    $0x1,%edi
  401d9a:	b8 00 00 00 00       	mov    $0x0,%eax
  401d9f:	e8 3c f0 ff ff       	callq  400de0 <__printf_chk@plt>
  401da4:	e9 f4 fe ff ff       	jmpq   401c9d <notify_server+0xf2>
  401da9:	e8 32 ef ff ff       	callq  400ce0 <__stack_chk_fail@plt>

0000000000401dae <validate>:
  401dae:	53                   	push   %rbx
  401daf:	89 fb                	mov    %edi,%ebx
  401db1:	83 3d 50 37 20 00 00 	cmpl   $0x0,0x203750(%rip)        # 605508 <is_checker>
  401db8:	74 6b                	je     401e25 <validate+0x77>
  401dba:	39 3d 3c 37 20 00    	cmp    %edi,0x20373c(%rip)        # 6054fc <vlevel>
  401dc0:	75 2f                	jne    401df1 <validate+0x43>
  401dc2:	8b 15 30 37 20 00    	mov    0x203730(%rip),%edx        # 6054f8 <check_level>
  401dc8:	39 fa                	cmp    %edi,%edx
  401dca:	75 39                	jne    401e05 <validate+0x57>
  401dcc:	0f be 15 55 43 20 00 	movsbl 0x204355(%rip),%edx        # 606128 <target_prefix>
  401dd3:	41 b8 20 55 60 00    	mov    $0x605520,%r8d
  401dd9:	89 f9                	mov    %edi,%ecx
  401ddb:	be f0 33 40 00       	mov    $0x4033f0,%esi
  401de0:	bf 01 00 00 00       	mov    $0x1,%edi
  401de5:	b8 00 00 00 00       	mov    $0x0,%eax
  401dea:	e8 f1 ef ff ff       	callq  400de0 <__printf_chk@plt>
  401def:	5b                   	pop    %rbx
  401df0:	c3                   	retq   
  401df1:	bf d2 33 40 00       	mov    $0x4033d2,%edi
  401df6:	e8 c5 ee ff ff       	callq  400cc0 <puts@plt>
  401dfb:	b8 00 00 00 00       	mov    $0x0,%eax
  401e00:	e8 1f fd ff ff       	callq  401b24 <check_fail>
  401e05:	89 f9                	mov    %edi,%ecx
  401e07:	be 10 35 40 00       	mov    $0x403510,%esi
  401e0c:	bf 01 00 00 00       	mov    $0x1,%edi
  401e11:	b8 00 00 00 00       	mov    $0x0,%eax
  401e16:	e8 c5 ef ff ff       	callq  400de0 <__printf_chk@plt>
  401e1b:	b8 00 00 00 00       	mov    $0x0,%eax
  401e20:	e8 ff fc ff ff       	callq  401b24 <check_fail>
  401e25:	39 3d d1 36 20 00    	cmp    %edi,0x2036d1(%rip)        # 6054fc <vlevel>
  401e2b:	74 18                	je     401e45 <validate+0x97>
  401e2d:	bf d2 33 40 00       	mov    $0x4033d2,%edi
  401e32:	e8 89 ee ff ff       	callq  400cc0 <puts@plt>
  401e37:	89 de                	mov    %ebx,%esi
  401e39:	bf 00 00 00 00       	mov    $0x0,%edi
  401e3e:	e8 68 fd ff ff       	callq  401bab <notify_server>
  401e43:	eb aa                	jmp    401def <validate+0x41>
  401e45:	0f be 0d dc 42 20 00 	movsbl 0x2042dc(%rip),%ecx        # 606128 <target_prefix>
  401e4c:	89 fa                	mov    %edi,%edx
  401e4e:	be 38 35 40 00       	mov    $0x403538,%esi
  401e53:	bf 01 00 00 00       	mov    $0x1,%edi
  401e58:	b8 00 00 00 00       	mov    $0x0,%eax
  401e5d:	e8 7e ef ff ff       	callq  400de0 <__printf_chk@plt>
  401e62:	89 de                	mov    %ebx,%esi
  401e64:	bf 01 00 00 00       	mov    $0x1,%edi
  401e69:	e8 3d fd ff ff       	callq  401bab <notify_server>
  401e6e:	e9 7c ff ff ff       	jmpq   401def <validate+0x41>

0000000000401e73 <fail>:
  401e73:	48 83 ec 08          	sub    $0x8,%rsp
  401e77:	83 3d 8a 36 20 00 00 	cmpl   $0x0,0x20368a(%rip)        # 605508 <is_checker>
  401e7e:	75 11                	jne    401e91 <fail+0x1e>
  401e80:	89 fe                	mov    %edi,%esi
  401e82:	bf 00 00 00 00       	mov    $0x0,%edi
  401e87:	e8 1f fd ff ff       	callq  401bab <notify_server>
  401e8c:	48 83 c4 08          	add    $0x8,%rsp
  401e90:	c3                   	retq   
  401e91:	b8 00 00 00 00       	mov    $0x0,%eax
  401e96:	e8 89 fc ff ff       	callq  401b24 <check_fail>

0000000000401e9b <bushandler>:
  401e9b:	48 83 ec 08          	sub    $0x8,%rsp
  401e9f:	83 3d 62 36 20 00 00 	cmpl   $0x0,0x203662(%rip)        # 605508 <is_checker>
  401ea6:	74 14                	je     401ebc <bushandler+0x21>
  401ea8:	bf 05 34 40 00       	mov    $0x403405,%edi
  401ead:	e8 0e ee ff ff       	callq  400cc0 <puts@plt>
  401eb2:	b8 00 00 00 00       	mov    $0x0,%eax
  401eb7:	e8 68 fc ff ff       	callq  401b24 <check_fail>
  401ebc:	bf 70 35 40 00       	mov    $0x403570,%edi
  401ec1:	e8 fa ed ff ff       	callq  400cc0 <puts@plt>
  401ec6:	bf 0f 34 40 00       	mov    $0x40340f,%edi
  401ecb:	e8 f0 ed ff ff       	callq  400cc0 <puts@plt>
  401ed0:	be 00 00 00 00       	mov    $0x0,%esi
  401ed5:	bf 00 00 00 00       	mov    $0x0,%edi
  401eda:	e8 cc fc ff ff       	callq  401bab <notify_server>
  401edf:	bf 01 00 00 00       	mov    $0x1,%edi
  401ee4:	e8 47 ef ff ff       	callq  400e30 <exit@plt>

0000000000401ee9 <seghandler>:
  401ee9:	48 83 ec 08          	sub    $0x8,%rsp
  401eed:	83 3d 14 36 20 00 00 	cmpl   $0x0,0x203614(%rip)        # 605508 <is_checker>
  401ef4:	74 14                	je     401f0a <seghandler+0x21>
  401ef6:	bf 25 34 40 00       	mov    $0x403425,%edi
  401efb:	e8 c0 ed ff ff       	callq  400cc0 <puts@plt>
  401f00:	b8 00 00 00 00       	mov    $0x0,%eax
  401f05:	e8 1a fc ff ff       	callq  401b24 <check_fail>
  401f0a:	bf 90 35 40 00       	mov    $0x403590,%edi
  401f0f:	e8 ac ed ff ff       	callq  400cc0 <puts@plt>
  401f14:	bf 0f 34 40 00       	mov    $0x40340f,%edi
  401f19:	e8 a2 ed ff ff       	callq  400cc0 <puts@plt>
  401f1e:	be 00 00 00 00       	mov    $0x0,%esi
  401f23:	bf 00 00 00 00       	mov    $0x0,%edi
  401f28:	e8 7e fc ff ff       	callq  401bab <notify_server>
  401f2d:	bf 01 00 00 00       	mov    $0x1,%edi
  401f32:	e8 f9 ee ff ff       	callq  400e30 <exit@plt>

0000000000401f37 <illegalhandler>:
  401f37:	48 83 ec 08          	sub    $0x8,%rsp
  401f3b:	83 3d c6 35 20 00 00 	cmpl   $0x0,0x2035c6(%rip)        # 605508 <is_checker>
  401f42:	74 14                	je     401f58 <illegalhandler+0x21>
  401f44:	bf 38 34 40 00       	mov    $0x403438,%edi
  401f49:	e8 72 ed ff ff       	callq  400cc0 <puts@plt>
  401f4e:	b8 00 00 00 00       	mov    $0x0,%eax
  401f53:	e8 cc fb ff ff       	callq  401b24 <check_fail>
  401f58:	bf b8 35 40 00       	mov    $0x4035b8,%edi
  401f5d:	e8 5e ed ff ff       	callq  400cc0 <puts@plt>
  401f62:	bf 0f 34 40 00       	mov    $0x40340f,%edi
  401f67:	e8 54 ed ff ff       	callq  400cc0 <puts@plt>
  401f6c:	be 00 00 00 00       	mov    $0x0,%esi
  401f71:	bf 00 00 00 00       	mov    $0x0,%edi
  401f76:	e8 30 fc ff ff       	callq  401bab <notify_server>
  401f7b:	bf 01 00 00 00       	mov    $0x1,%edi
  401f80:	e8 ab ee ff ff       	callq  400e30 <exit@plt>

0000000000401f85 <sigalrmhandler>:
  401f85:	48 83 ec 08          	sub    $0x8,%rsp
  401f89:	83 3d 78 35 20 00 00 	cmpl   $0x0,0x203578(%rip)        # 605508 <is_checker>
  401f90:	74 14                	je     401fa6 <sigalrmhandler+0x21>
  401f92:	bf 4c 34 40 00       	mov    $0x40344c,%edi
  401f97:	e8 24 ed ff ff       	callq  400cc0 <puts@plt>
  401f9c:	b8 00 00 00 00       	mov    $0x0,%eax
  401fa1:	e8 7e fb ff ff       	callq  401b24 <check_fail>
  401fa6:	ba 05 00 00 00       	mov    $0x5,%edx
  401fab:	be e8 35 40 00       	mov    $0x4035e8,%esi
  401fb0:	bf 01 00 00 00       	mov    $0x1,%edi
  401fb5:	b8 00 00 00 00       	mov    $0x0,%eax
  401fba:	e8 21 ee ff ff       	callq  400de0 <__printf_chk@plt>
  401fbf:	be 00 00 00 00       	mov    $0x0,%esi
  401fc4:	bf 00 00 00 00       	mov    $0x0,%edi
  401fc9:	e8 dd fb ff ff       	callq  401bab <notify_server>
  401fce:	bf 01 00 00 00       	mov    $0x1,%edi
  401fd3:	e8 58 ee ff ff       	callq  400e30 <exit@plt>

0000000000401fd8 <launch>:
  401fd8:	55                   	push   %rbp
  401fd9:	48 89 e5             	mov    %rsp,%rbp
  401fdc:	48 83 ec 10          	sub    $0x10,%rsp
  401fe0:	48 89 fa             	mov    %rdi,%rdx
  401fe3:	64 48 8b 04 25 28 00 	mov    %fs:0x28,%rax
  401fea:	00 00 
  401fec:	48 89 45 f8          	mov    %rax,-0x8(%rbp)
  401ff0:	31 c0                	xor    %eax,%eax
  401ff2:	48 8d 47 1e          	lea    0x1e(%rdi),%rax
  401ff6:	48 83 e0 f0          	and    $0xfffffffffffffff0,%rax
  401ffa:	48 29 c4             	sub    %rax,%rsp
  401ffd:	48 8d 7c 24 0f       	lea    0xf(%rsp),%rdi
  402002:	48 83 e7 f0          	and    $0xfffffffffffffff0,%rdi
  402006:	be f4 00 00 00       	mov    $0xf4,%esi
  40200b:	e8 f0 ec ff ff       	callq  400d00 <memset@plt>
  402010:	48 8b 05 89 34 20 00 	mov    0x203489(%rip),%rax        # 6054a0 <stdin@@GLIBC_2.2.5>
  402017:	48 39 05 d2 34 20 00 	cmp    %rax,0x2034d2(%rip)        # 6054f0 <infile>
  40201e:	74 38                	je     402058 <launch+0x80>
  402020:	c7 05 d2 34 20 00 00 	movl   $0x0,0x2034d2(%rip)        # 6054fc <vlevel>
  402027:	00 00 00 
  40202a:	b8 00 00 00 00       	mov    $0x0,%eax
  40202f:	e8 5c fa ff ff       	callq  401a90 <test>
  402034:	83 3d cd 34 20 00 00 	cmpl   $0x0,0x2034cd(%rip)        # 605508 <is_checker>
  40203b:	75 31                	jne    40206e <launch+0x96>
  40203d:	bf 6c 34 40 00       	mov    $0x40346c,%edi
  402042:	e8 79 ec ff ff       	callq  400cc0 <puts@plt>
  402047:	48 8b 45 f8          	mov    -0x8(%rbp),%rax
  40204b:	64 48 33 04 25 28 00 	xor    %fs:0x28,%rax
  402052:	00 00 
  402054:	75 2c                	jne    402082 <launch+0xaa>
  402056:	c9                   	leaveq 
  402057:	c3                   	retq   
  402058:	be 54 34 40 00       	mov    $0x403454,%esi
  40205d:	bf 01 00 00 00       	mov    $0x1,%edi
  402062:	b8 00 00 00 00       	mov    $0x0,%eax
  402067:	e8 74 ed ff ff       	callq  400de0 <__printf_chk@plt>
  40206c:	eb b2                	jmp    402020 <launch+0x48>
  40206e:	bf 61 34 40 00       	mov    $0x403461,%edi
  402073:	e8 48 ec ff ff       	callq  400cc0 <puts@plt>
  402078:	b8 00 00 00 00       	mov    $0x0,%eax
  40207d:	e8 a2 fa ff ff       	callq  401b24 <check_fail>
  402082:	e8 59 ec ff ff       	callq  400ce0 <__stack_chk_fail@plt>

0000000000402087 <stable_launch>:
  402087:	53                   	push   %rbx
  402088:	48 89 3d 59 34 20 00 	mov    %rdi,0x203459(%rip)        # 6054e8 <global_offset>
  40208f:	41 b9 00 00 00 00    	mov    $0x0,%r9d
  402095:	41 b8 00 00 00 00    	mov    $0x0,%r8d
  40209b:	b9 32 01 00 00       	mov    $0x132,%ecx
  4020a0:	ba 07 00 00 00       	mov    $0x7,%edx
  4020a5:	be 00 00 10 00       	mov    $0x100000,%esi
  4020aa:	bf 00 60 58 55       	mov    $0x55586000,%edi
  4020af:	e8 3c ec ff ff       	callq  400cf0 <mmap@plt>
  4020b4:	48 89 c3             	mov    %rax,%rbx
  4020b7:	48 3d 00 60 58 55    	cmp    $0x55586000,%rax
  4020bd:	75 43                	jne    402102 <stable_launch+0x7b>
  4020bf:	48 8d 90 f8 ff 0f 00 	lea    0xffff8(%rax),%rdx
  4020c6:	48 89 15 63 40 20 00 	mov    %rdx,0x204063(%rip)        # 606130 <stack_top>
  4020cd:	48 89 e0             	mov    %rsp,%rax
  4020d0:	48 89 d4             	mov    %rdx,%rsp
  4020d3:	48 89 c2             	mov    %rax,%rdx
  4020d6:	48 89 15 03 34 20 00 	mov    %rdx,0x203403(%rip)        # 6054e0 <global_save_stack>
  4020dd:	48 8b 3d 04 34 20 00 	mov    0x203404(%rip),%rdi        # 6054e8 <global_offset>
  4020e4:	e8 ef fe ff ff       	callq  401fd8 <launch>
  4020e9:	48 8b 05 f0 33 20 00 	mov    0x2033f0(%rip),%rax        # 6054e0 <global_save_stack>
  4020f0:	48 89 c4             	mov    %rax,%rsp
  4020f3:	be 00 00 10 00       	mov    $0x100000,%esi
  4020f8:	48 89 df             	mov    %rbx,%rdi
  4020fb:	e8 d0 ec ff ff       	callq  400dd0 <munmap@plt>
  402100:	5b                   	pop    %rbx
  402101:	c3                   	retq   
  402102:	be 00 00 10 00       	mov    $0x100000,%esi
  402107:	48 89 c7             	mov    %rax,%rdi
  40210a:	e8 c1 ec ff ff       	callq  400dd0 <munmap@plt>
  40210f:	b9 00 60 58 55       	mov    $0x55586000,%ecx
  402114:	ba 20 36 40 00       	mov    $0x403620,%edx
  402119:	be 01 00 00 00       	mov    $0x1,%esi
  40211e:	48 8b 3d 9b 33 20 00 	mov    0x20339b(%rip),%rdi        # 6054c0 <stderr@@GLIBC_2.2.5>
  402125:	b8 00 00 00 00       	mov    $0x0,%eax
  40212a:	e8 21 ed ff ff       	callq  400e50 <__fprintf_chk@plt>
  40212f:	bf 01 00 00 00       	mov    $0x1,%edi
  402134:	e8 f7 ec ff ff       	callq  400e30 <exit@plt>

0000000000402139 <rio_readinitb>:
  402139:	89 37                	mov    %esi,(%rdi)
  40213b:	c7 47 04 00 00 00 00 	movl   $0x0,0x4(%rdi)
  402142:	48 8d 47 10          	lea    0x10(%rdi),%rax
  402146:	48 89 47 08          	mov    %rax,0x8(%rdi)
  40214a:	c3                   	retq   

000000000040214b <sigalrm_handler>:
  40214b:	48 83 ec 08          	sub    $0x8,%rsp
  40214f:	b9 00 00 00 00       	mov    $0x0,%ecx
  402154:	ba 60 36 40 00       	mov    $0x403660,%edx
  402159:	be 01 00 00 00       	mov    $0x1,%esi
  40215e:	48 8b 3d 5b 33 20 00 	mov    0x20335b(%rip),%rdi        # 6054c0 <stderr@@GLIBC_2.2.5>
  402165:	b8 00 00 00 00       	mov    $0x0,%eax
  40216a:	e8 e1 ec ff ff       	callq  400e50 <__fprintf_chk@plt>
  40216f:	bf 01 00 00 00       	mov    $0x1,%edi
  402174:	e8 b7 ec ff ff       	callq  400e30 <exit@plt>

0000000000402179 <rio_writen>:
  402179:	41 55                	push   %r13
  40217b:	41 54                	push   %r12
  40217d:	55                   	push   %rbp
  40217e:	53                   	push   %rbx
  40217f:	48 83 ec 08          	sub    $0x8,%rsp
  402183:	41 89 fc             	mov    %edi,%r12d
  402186:	48 89 f5             	mov    %rsi,%rbp
  402189:	49 89 d5             	mov    %rdx,%r13
  40218c:	48 89 d3             	mov    %rdx,%rbx
  40218f:	eb 06                	jmp    402197 <rio_writen+0x1e>
  402191:	48 29 c3             	sub    %rax,%rbx
  402194:	48 01 c5             	add    %rax,%rbp
  402197:	48 85 db             	test   %rbx,%rbx
  40219a:	74 24                	je     4021c0 <rio_writen+0x47>
  40219c:	48 89 da             	mov    %rbx,%rdx
  40219f:	48 89 ee             	mov    %rbp,%rsi
  4021a2:	44 89 e7             	mov    %r12d,%edi
  4021a5:	e8 26 eb ff ff       	callq  400cd0 <write@plt>
  4021aa:	48 85 c0             	test   %rax,%rax
  4021ad:	7f e2                	jg     402191 <rio_writen+0x18>
  4021af:	e8 cc ea ff ff       	callq  400c80 <__errno_location@plt>
  4021b4:	83 38 04             	cmpl   $0x4,(%rax)
  4021b7:	75 15                	jne    4021ce <rio_writen+0x55>
  4021b9:	b8 00 00 00 00       	mov    $0x0,%eax
  4021be:	eb d1                	jmp    402191 <rio_writen+0x18>
  4021c0:	4c 89 e8             	mov    %r13,%rax
  4021c3:	48 83 c4 08          	add    $0x8,%rsp
  4021c7:	5b                   	pop    %rbx
  4021c8:	5d                   	pop    %rbp
  4021c9:	41 5c                	pop    %r12
  4021cb:	41 5d                	pop    %r13
  4021cd:	c3                   	retq   
  4021ce:	48 c7 c0 ff ff ff ff 	mov    $0xffffffffffffffff,%rax
  4021d5:	eb ec                	jmp    4021c3 <rio_writen+0x4a>

00000000004021d7 <rio_read>:
  4021d7:	41 55                	push   %r13
  4021d9:	41 54                	push   %r12
  4021db:	55                   	push   %rbp
  4021dc:	53                   	push   %rbx
  4021dd:	48 83 ec 08          	sub    $0x8,%rsp
  4021e1:	48 89 fb             	mov    %rdi,%rbx
  4021e4:	49 89 f5             	mov    %rsi,%r13
  4021e7:	49 89 d4             	mov    %rdx,%r12
  4021ea:	eb 0a                	jmp    4021f6 <rio_read+0x1f>
  4021ec:	e8 8f ea ff ff       	callq  400c80 <__errno_location@plt>
  4021f1:	83 38 04             	cmpl   $0x4,(%rax)
  4021f4:	75 5c                	jne    402252 <rio_read+0x7b>
  4021f6:	8b 6b 04             	mov    0x4(%rbx),%ebp
  4021f9:	85 ed                	test   %ebp,%ebp
  4021fb:	7f 24                	jg     402221 <rio_read+0x4a>
  4021fd:	48 8d 6b 10          	lea    0x10(%rbx),%rbp
  402201:	8b 3b                	mov    (%rbx),%edi
  402203:	ba 00 20 00 00       	mov    $0x2000,%edx
  402208:	48 89 ee             	mov    %rbp,%rsi
  40220b:	e8 20 eb ff ff       	callq  400d30 <read@plt>
  402210:	89 43 04             	mov    %eax,0x4(%rbx)
  402213:	85 c0                	test   %eax,%eax
  402215:	78 d5                	js     4021ec <rio_read+0x15>
  402217:	85 c0                	test   %eax,%eax
  402219:	74 40                	je     40225b <rio_read+0x84>
  40221b:	48 89 6b 08          	mov    %rbp,0x8(%rbx)
  40221f:	eb d5                	jmp    4021f6 <rio_read+0x1f>
  402221:	89 e8                	mov    %ebp,%eax
  402223:	4c 39 e0             	cmp    %r12,%rax
  402226:	72 03                	jb     40222b <rio_read+0x54>
  402228:	44 89 e5             	mov    %r12d,%ebp
  40222b:	4c 63 e5             	movslq %ebp,%r12
  40222e:	48 8b 73 08          	mov    0x8(%rbx),%rsi
  402232:	4c 89 e2             	mov    %r12,%rdx
  402235:	4c 89 ef             	mov    %r13,%rdi
  402238:	e8 43 eb ff ff       	callq  400d80 <memcpy@plt>
  40223d:	4c 01 63 08          	add    %r12,0x8(%rbx)
  402241:	29 6b 04             	sub    %ebp,0x4(%rbx)
  402244:	4c 89 e0             	mov    %r12,%rax
  402247:	48 83 c4 08          	add    $0x8,%rsp
  40224b:	5b                   	pop    %rbx
  40224c:	5d                   	pop    %rbp
  40224d:	41 5c                	pop    %r12
  40224f:	41 5d                	pop    %r13
  402251:	c3                   	retq   
  402252:	48 c7 c0 ff ff ff ff 	mov    $0xffffffffffffffff,%rax
  402259:	eb ec                	jmp    402247 <rio_read+0x70>
  40225b:	b8 00 00 00 00       	mov    $0x0,%eax
  402260:	eb e5                	jmp    402247 <rio_read+0x70>

0000000000402262 <rio_readlineb>:
  402262:	41 55                	push   %r13
  402264:	41 54                	push   %r12
  402266:	55                   	push   %rbp
  402267:	53                   	push   %rbx
  402268:	48 83 ec 18          	sub    $0x18,%rsp
  40226c:	49 89 fd             	mov    %rdi,%r13
  40226f:	48 89 f5             	mov    %rsi,%rbp
  402272:	49 89 d4             	mov    %rdx,%r12
  402275:	64 48 8b 04 25 28 00 	mov    %fs:0x28,%rax
  40227c:	00 00 
  40227e:	48 89 44 24 08       	mov    %rax,0x8(%rsp)
  402283:	31 c0                	xor    %eax,%eax
  402285:	bb 01 00 00 00       	mov    $0x1,%ebx
  40228a:	4c 39 e3             	cmp    %r12,%rbx
  40228d:	73 47                	jae    4022d6 <rio_readlineb+0x74>
  40228f:	ba 01 00 00 00       	mov    $0x1,%edx
  402294:	48 8d 74 24 07       	lea    0x7(%rsp),%rsi
  402299:	4c 89 ef             	mov    %r13,%rdi
  40229c:	e8 36 ff ff ff       	callq  4021d7 <rio_read>
  4022a1:	83 f8 01             	cmp    $0x1,%eax
  4022a4:	75 1c                	jne    4022c2 <rio_readlineb+0x60>
  4022a6:	48 8d 45 01          	lea    0x1(%rbp),%rax
  4022aa:	0f b6 54 24 07       	movzbl 0x7(%rsp),%edx
  4022af:	88 55 00             	mov    %dl,0x0(%rbp)
  4022b2:	80 7c 24 07 0a       	cmpb   $0xa,0x7(%rsp)
  4022b7:	74 1a                	je     4022d3 <rio_readlineb+0x71>
  4022b9:	48 83 c3 01          	add    $0x1,%rbx
  4022bd:	48 89 c5             	mov    %rax,%rbp
  4022c0:	eb c8                	jmp    40228a <rio_readlineb+0x28>
  4022c2:	85 c0                	test   %eax,%eax
  4022c4:	75 32                	jne    4022f8 <rio_readlineb+0x96>
  4022c6:	48 83 fb 01          	cmp    $0x1,%rbx
  4022ca:	75 0a                	jne    4022d6 <rio_readlineb+0x74>
  4022cc:	b8 00 00 00 00       	mov    $0x0,%eax
  4022d1:	eb 0a                	jmp    4022dd <rio_readlineb+0x7b>
  4022d3:	48 89 c5             	mov    %rax,%rbp
  4022d6:	c6 45 00 00          	movb   $0x0,0x0(%rbp)
  4022da:	48 89 d8             	mov    %rbx,%rax
  4022dd:	48 8b 4c 24 08       	mov    0x8(%rsp),%rcx
  4022e2:	64 48 33 0c 25 28 00 	xor    %fs:0x28,%rcx
  4022e9:	00 00 
  4022eb:	75 14                	jne    402301 <rio_readlineb+0x9f>
  4022ed:	48 83 c4 18          	add    $0x18,%rsp
  4022f1:	5b                   	pop    %rbx
  4022f2:	5d                   	pop    %rbp
  4022f3:	41 5c                	pop    %r12
  4022f5:	41 5d                	pop    %r13
  4022f7:	c3                   	retq   
  4022f8:	48 c7 c0 ff ff ff ff 	mov    $0xffffffffffffffff,%rax
  4022ff:	eb dc                	jmp    4022dd <rio_readlineb+0x7b>
  402301:	e8 da e9 ff ff       	callq  400ce0 <__stack_chk_fail@plt>

0000000000402306 <urlencode>:
  402306:	41 54                	push   %r12
  402308:	55                   	push   %rbp
  402309:	53                   	push   %rbx
  40230a:	48 83 ec 10          	sub    $0x10,%rsp
  40230e:	48 89 fb             	mov    %rdi,%rbx
  402311:	48 89 f5             	mov    %rsi,%rbp
  402314:	64 48 8b 04 25 28 00 	mov    %fs:0x28,%rax
  40231b:	00 00 
  40231d:	48 89 44 24 08       	mov    %rax,0x8(%rsp)
  402322:	31 c0                	xor    %eax,%eax
  402324:	48 c7 c1 ff ff ff ff 	mov    $0xffffffffffffffff,%rcx
  40232b:	f2 ae                	repnz scas %es:(%rdi),%al
  40232d:	48 89 ce             	mov    %rcx,%rsi
  402330:	48 f7 d6             	not    %rsi
  402333:	8d 46 ff             	lea    -0x1(%rsi),%eax
  402336:	eb 0f                	jmp    402347 <urlencode+0x41>
  402338:	44 88 45 00          	mov    %r8b,0x0(%rbp)
  40233c:	48 8d 6d 01          	lea    0x1(%rbp),%rbp
  402340:	48 83 c3 01          	add    $0x1,%rbx
  402344:	44 89 e0             	mov    %r12d,%eax
  402347:	44 8d 60 ff          	lea    -0x1(%rax),%r12d
  40234b:	85 c0                	test   %eax,%eax
  40234d:	0f 84 a6 00 00 00    	je     4023f9 <urlencode+0xf3>
  402353:	44 0f b6 03          	movzbl (%rbx),%r8d
  402357:	41 80 f8 2a          	cmp    $0x2a,%r8b
  40235b:	0f 94 c2             	sete   %dl
  40235e:	41 80 f8 2d          	cmp    $0x2d,%r8b
  402362:	0f 94 c0             	sete   %al
  402365:	08 c2                	or     %al,%dl
  402367:	75 cf                	jne    402338 <urlencode+0x32>
  402369:	41 80 f8 2e          	cmp    $0x2e,%r8b
  40236d:	74 c9                	je     402338 <urlencode+0x32>
  40236f:	41 80 f8 5f          	cmp    $0x5f,%r8b
  402373:	74 c3                	je     402338 <urlencode+0x32>
  402375:	41 8d 40 d0          	lea    -0x30(%r8),%eax
  402379:	3c 09                	cmp    $0x9,%al
  40237b:	76 bb                	jbe    402338 <urlencode+0x32>
  40237d:	41 8d 40 bf          	lea    -0x41(%r8),%eax
  402381:	3c 19                	cmp    $0x19,%al
  402383:	76 b3                	jbe    402338 <urlencode+0x32>
  402385:	41 8d 40 9f          	lea    -0x61(%r8),%eax
  402389:	3c 19                	cmp    $0x19,%al
  40238b:	76 ab                	jbe    402338 <urlencode+0x32>
  40238d:	41 80 f8 20          	cmp    $0x20,%r8b
  402391:	74 54                	je     4023e7 <urlencode+0xe1>
  402393:	41 8d 40 e0          	lea    -0x20(%r8),%eax
  402397:	3c 5f                	cmp    $0x5f,%al
  402399:	0f 96 c2             	setbe  %dl
  40239c:	41 80 f8 09          	cmp    $0x9,%r8b
  4023a0:	0f 94 c0             	sete   %al
  4023a3:	08 c2                	or     %al,%dl
  4023a5:	74 4d                	je     4023f4 <urlencode+0xee>
  4023a7:	45 0f b6 c0          	movzbl %r8b,%r8d
  4023ab:	b9 f8 36 40 00       	mov    $0x4036f8,%ecx
  4023b0:	ba 08 00 00 00       	mov    $0x8,%edx
  4023b5:	be 01 00 00 00       	mov    $0x1,%esi
  4023ba:	48 89 e7             	mov    %rsp,%rdi
  4023bd:	b8 00 00 00 00       	mov    $0x0,%eax
  4023c2:	e8 99 ea ff ff       	callq  400e60 <__sprintf_chk@plt>
  4023c7:	0f b6 04 24          	movzbl (%rsp),%eax
  4023cb:	88 45 00             	mov    %al,0x0(%rbp)
  4023ce:	0f b6 44 24 01       	movzbl 0x1(%rsp),%eax
  4023d3:	88 45 01             	mov    %al,0x1(%rbp)
  4023d6:	0f b6 44 24 02       	movzbl 0x2(%rsp),%eax
  4023db:	88 45 02             	mov    %al,0x2(%rbp)
  4023de:	48 8d 6d 03          	lea    0x3(%rbp),%rbp
  4023e2:	e9 59 ff ff ff       	jmpq   402340 <urlencode+0x3a>
  4023e7:	c6 45 00 2b          	movb   $0x2b,0x0(%rbp)
  4023eb:	48 8d 6d 01          	lea    0x1(%rbp),%rbp
  4023ef:	e9 4c ff ff ff       	jmpq   402340 <urlencode+0x3a>
  4023f4:	b8 ff ff ff ff       	mov    $0xffffffff,%eax
  4023f9:	48 8b 74 24 08       	mov    0x8(%rsp),%rsi
  4023fe:	64 48 33 34 25 28 00 	xor    %fs:0x28,%rsi
  402405:	00 00 
  402407:	75 09                	jne    402412 <urlencode+0x10c>
  402409:	48 83 c4 10          	add    $0x10,%rsp
  40240d:	5b                   	pop    %rbx
  40240e:	5d                   	pop    %rbp
  40240f:	41 5c                	pop    %r12
  402411:	c3                   	retq   
  402412:	e8 c9 e8 ff ff       	callq  400ce0 <__stack_chk_fail@plt>

0000000000402417 <submitr>:
  402417:	41 57                	push   %r15
  402419:	41 56                	push   %r14
  40241b:	41 55                	push   %r13
  40241d:	41 54                	push   %r12
  40241f:	55                   	push   %rbp
  402420:	53                   	push   %rbx
  402421:	48 81 ec 58 a0 00 00 	sub    $0xa058,%rsp
  402428:	49 89 fc             	mov    %rdi,%r12
  40242b:	89 74 24 04          	mov    %esi,0x4(%rsp)
  40242f:	49 89 d7             	mov    %rdx,%r15
  402432:	49 89 ce             	mov    %rcx,%r14
  402435:	4c 89 44 24 08       	mov    %r8,0x8(%rsp)
  40243a:	4d 89 cd             	mov    %r9,%r13
  40243d:	48 8b ac 24 90 a0 00 	mov    0xa090(%rsp),%rbp
  402444:	00 
  402445:	64 48 8b 04 25 28 00 	mov    %fs:0x28,%rax
  40244c:	00 00 
  40244e:	48 89 84 24 48 a0 00 	mov    %rax,0xa048(%rsp)
  402455:	00 
  402456:	31 c0                	xor    %eax,%eax
  402458:	c7 44 24 1c 00 00 00 	movl   $0x0,0x1c(%rsp)
  40245f:	00 
  402460:	ba 00 00 00 00       	mov    $0x0,%edx
  402465:	be 01 00 00 00       	mov    $0x1,%esi
  40246a:	bf 02 00 00 00       	mov    $0x2,%edi
  40246f:	e8 fc e9 ff ff       	callq  400e70 <socket@plt>
  402474:	85 c0                	test   %eax,%eax
  402476:	0f 88 9b 02 00 00    	js     402717 <submitr+0x300>
  40247c:	89 c3                	mov    %eax,%ebx
  40247e:	4c 89 e7             	mov    %r12,%rdi
  402481:	e8 ca e8 ff ff       	callq  400d50 <gethostbyname@plt>
  402486:	48 85 c0             	test   %rax,%rax
  402489:	0f 84 d4 02 00 00    	je     402763 <submitr+0x34c>
  40248f:	48 c7 44 24 22 00 00 	movq   $0x0,0x22(%rsp)
  402496:	00 00 
  402498:	c7 44 24 2a 00 00 00 	movl   $0x0,0x2a(%rsp)
  40249f:	00 
  4024a0:	66 c7 44 24 2e 00 00 	movw   $0x0,0x2e(%rsp)
  4024a7:	66 c7 44 24 20 02 00 	movw   $0x2,0x20(%rsp)
  4024ae:	48 63 50 14          	movslq 0x14(%rax),%rdx
  4024b2:	48 8b 40 18          	mov    0x18(%rax),%rax
  4024b6:	48 8b 30             	mov    (%rax),%rsi
  4024b9:	48 8d 7c 24 24       	lea    0x24(%rsp),%rdi
  4024be:	b9 0c 00 00 00       	mov    $0xc,%ecx
  4024c3:	e8 98 e8 ff ff       	callq  400d60 <__memmove_chk@plt>
  4024c8:	0f b7 44 24 04       	movzwl 0x4(%rsp),%eax
  4024cd:	66 c1 c8 08          	ror    $0x8,%ax
  4024d1:	66 89 44 24 22       	mov    %ax,0x22(%rsp)
  4024d6:	ba 10 00 00 00       	mov    $0x10,%edx
  4024db:	48 8d 74 24 20       	lea    0x20(%rsp),%rsi
  4024e0:	89 df                	mov    %ebx,%edi
  4024e2:	e8 59 e9 ff ff       	callq  400e40 <connect@plt>
  4024e7:	85 c0                	test   %eax,%eax
  4024e9:	0f 88 dc 02 00 00    	js     4027cb <submitr+0x3b4>
  4024ef:	48 c7 c6 ff ff ff ff 	mov    $0xffffffffffffffff,%rsi
  4024f6:	b8 00 00 00 00       	mov    $0x0,%eax
  4024fb:	48 89 f1             	mov    %rsi,%rcx
  4024fe:	4c 89 ef             	mov    %r13,%rdi
  402501:	f2 ae                	repnz scas %es:(%rdi),%al
  402503:	48 89 ca             	mov    %rcx,%rdx
  402506:	48 f7 d2             	not    %rdx
  402509:	48 89 f1             	mov    %rsi,%rcx
  40250c:	4c 89 ff             	mov    %r15,%rdi
  40250f:	f2 ae                	repnz scas %es:(%rdi),%al
  402511:	48 f7 d1             	not    %rcx
  402514:	49 89 c8             	mov    %rcx,%r8
  402517:	48 89 f1             	mov    %rsi,%rcx
  40251a:	4c 89 f7             	mov    %r14,%rdi
  40251d:	f2 ae                	repnz scas %es:(%rdi),%al
  40251f:	48 f7 d1             	not    %rcx
  402522:	4d 8d 44 08 fe       	lea    -0x2(%r8,%rcx,1),%r8
  402527:	48 89 f1             	mov    %rsi,%rcx
  40252a:	48 8b 7c 24 08       	mov    0x8(%rsp),%rdi
  40252f:	f2 ae                	repnz scas %es:(%rdi),%al
  402531:	48 89 c8             	mov    %rcx,%rax
  402534:	48 f7 d0             	not    %rax
  402537:	49 8d 4c 00 ff       	lea    -0x1(%r8,%rax,1),%rcx
  40253c:	48 8d 44 52 fd       	lea    -0x3(%rdx,%rdx,2),%rax
  402541:	48 8d 84 01 80 00 00 	lea    0x80(%rcx,%rax,1),%rax
  402548:	00 
  402549:	48 3d 00 20 00 00    	cmp    $0x2000,%rax
  40254f:	0f 87 d0 02 00 00    	ja     402825 <submitr+0x40e>
  402555:	48 8d b4 24 40 40 00 	lea    0x4040(%rsp),%rsi
  40255c:	00 
  40255d:	b9 00 04 00 00       	mov    $0x400,%ecx
  402562:	b8 00 00 00 00       	mov    $0x0,%eax
  402567:	48 89 f7             	mov    %rsi,%rdi
  40256a:	f3 48 ab             	rep stos %rax,%es:(%rdi)
  40256d:	4c 89 ef             	mov    %r13,%rdi
  402570:	e8 91 fd ff ff       	callq  402306 <urlencode>
  402575:	85 c0                	test   %eax,%eax
  402577:	0f 88 1b 03 00 00    	js     402898 <submitr+0x481>
  40257d:	4c 8d ac 24 40 20 00 	lea    0x2040(%rsp),%r13
  402584:	00 
  402585:	41 54                	push   %r12
  402587:	48 8d 84 24 48 40 00 	lea    0x4048(%rsp),%rax
  40258e:	00 
  40258f:	50                   	push   %rax
  402590:	4d 89 f9             	mov    %r15,%r9
  402593:	4d 89 f0             	mov    %r14,%r8
  402596:	b9 88 36 40 00       	mov    $0x403688,%ecx
  40259b:	ba 00 20 00 00       	mov    $0x2000,%edx
  4025a0:	be 01 00 00 00       	mov    $0x1,%esi
  4025a5:	4c 89 ef             	mov    %r13,%rdi
  4025a8:	b8 00 00 00 00       	mov    $0x0,%eax
  4025ad:	e8 ae e8 ff ff       	callq  400e60 <__sprintf_chk@plt>
  4025b2:	48 c7 c1 ff ff ff ff 	mov    $0xffffffffffffffff,%rcx
  4025b9:	b8 00 00 00 00       	mov    $0x0,%eax
  4025be:	4c 89 ef             	mov    %r13,%rdi
  4025c1:	f2 ae                	repnz scas %es:(%rdi),%al
  4025c3:	48 89 ca             	mov    %rcx,%rdx
  4025c6:	48 f7 d2             	not    %rdx
  4025c9:	48 8d 52 ff          	lea    -0x1(%rdx),%rdx
  4025cd:	4c 89 ee             	mov    %r13,%rsi
  4025d0:	89 df                	mov    %ebx,%edi
  4025d2:	e8 a2 fb ff ff       	callq  402179 <rio_writen>
  4025d7:	48 83 c4 10          	add    $0x10,%rsp
  4025db:	48 85 c0             	test   %rax,%rax
  4025de:	0f 88 3f 03 00 00    	js     402923 <submitr+0x50c>
  4025e4:	89 de                	mov    %ebx,%esi
  4025e6:	48 8d 7c 24 30       	lea    0x30(%rsp),%rdi
  4025eb:	e8 49 fb ff ff       	callq  402139 <rio_readinitb>
  4025f0:	ba 00 20 00 00       	mov    $0x2000,%edx
  4025f5:	48 8d b4 24 40 20 00 	lea    0x2040(%rsp),%rsi
  4025fc:	00 
  4025fd:	48 8d 7c 24 30       	lea    0x30(%rsp),%rdi
  402602:	e8 5b fc ff ff       	callq  402262 <rio_readlineb>
  402607:	48 85 c0             	test   %rax,%rax
  40260a:	0f 8e 82 03 00 00    	jle    402992 <submitr+0x57b>
  402610:	4c 8d 84 24 40 80 00 	lea    0x8040(%rsp),%r8
  402617:	00 
  402618:	48 8d 4c 24 1c       	lea    0x1c(%rsp),%rcx
  40261d:	48 8d 94 24 40 60 00 	lea    0x6040(%rsp),%rdx
  402624:	00 
  402625:	be ff 36 40 00       	mov    $0x4036ff,%esi
  40262a:	48 8d bc 24 40 20 00 	lea    0x2040(%rsp),%rdi
  402631:	00 
  402632:	b8 00 00 00 00       	mov    $0x0,%eax
  402637:	e8 84 e7 ff ff       	callq  400dc0 <__isoc99_sscanf@plt>
  40263c:	48 8d b4 24 40 20 00 	lea    0x2040(%rsp),%rsi
  402643:	00 
  402644:	bf 16 37 40 00       	mov    $0x403716,%edi
  402649:	b9 03 00 00 00       	mov    $0x3,%ecx
  40264e:	f3 a6                	repz cmpsb %es:(%rdi),%ds:(%rsi)
  402650:	0f 97 c0             	seta   %al
  402653:	1c 00                	sbb    $0x0,%al
  402655:	84 c0                	test   %al,%al
  402657:	0f 84 b3 03 00 00    	je     402a10 <submitr+0x5f9>
  40265d:	ba 00 20 00 00       	mov    $0x2000,%edx
  402662:	48 8d b4 24 40 20 00 	lea    0x2040(%rsp),%rsi
  402669:	00 
  40266a:	48 8d 7c 24 30       	lea    0x30(%rsp),%rdi
  40266f:	e8 ee fb ff ff       	callq  402262 <rio_readlineb>
  402674:	48 85 c0             	test   %rax,%rax
  402677:	7f c3                	jg     40263c <submitr+0x225>
  402679:	48 b8 45 72 72 6f 72 	movabs $0x43203a726f727245,%rax
  402680:	3a 20 43 
  402683:	48 ba 6c 69 65 6e 74 	movabs $0x6e7520746e65696c,%rdx
  40268a:	20 75 6e 
  40268d:	48 89 45 00          	mov    %rax,0x0(%rbp)
  402691:	48 89 55 08          	mov    %rdx,0x8(%rbp)
  402695:	48 b8 61 62 6c 65 20 	movabs $0x206f7420656c6261,%rax
  40269c:	74 6f 20 
  40269f:	48 ba 72 65 61 64 20 	movabs $0x6165682064616572,%rdx
  4026a6:	68 65 61 
  4026a9:	48 89 45 10          	mov    %rax,0x10(%rbp)
  4026ad:	48 89 55 18          	mov    %rdx,0x18(%rbp)
  4026b1:	48 b8 64 65 72 73 20 	movabs $0x6f72662073726564,%rax
  4026b8:	66 72 6f 
  4026bb:	48 ba 6d 20 74 68 65 	movabs $0x657220656874206d,%rdx
  4026c2:	20 72 65 
  4026c5:	48 89 45 20          	mov    %rax,0x20(%rbp)
  4026c9:	48 89 55 28          	mov    %rdx,0x28(%rbp)
  4026cd:	48 b8 73 75 6c 74 20 	movabs $0x72657320746c7573,%rax
  4026d4:	73 65 72 
  4026d7:	48 89 45 30          	mov    %rax,0x30(%rbp)
  4026db:	c7 45 38 76 65 72 00 	movl   $0x726576,0x38(%rbp)
  4026e2:	89 df                	mov    %ebx,%edi
  4026e4:	e8 37 e6 ff ff       	callq  400d20 <close@plt>
  4026e9:	b8 ff ff ff ff       	mov    $0xffffffff,%eax
  4026ee:	48 8b 9c 24 48 a0 00 	mov    0xa048(%rsp),%rbx
  4026f5:	00 
  4026f6:	64 48 33 1c 25 28 00 	xor    %fs:0x28,%rbx
  4026fd:	00 00 
  4026ff:	0f 85 76 04 00 00    	jne    402b7b <submitr+0x764>
  402705:	48 81 c4 58 a0 00 00 	add    $0xa058,%rsp
  40270c:	5b                   	pop    %rbx
  40270d:	5d                   	pop    %rbp
  40270e:	41 5c                	pop    %r12
  402710:	41 5d                	pop    %r13
  402712:	41 5e                	pop    %r14
  402714:	41 5f                	pop    %r15
  402716:	c3                   	retq   
  402717:	48 b8 45 72 72 6f 72 	movabs $0x43203a726f727245,%rax
  40271e:	3a 20 43 
  402721:	48 ba 6c 69 65 6e 74 	movabs $0x6e7520746e65696c,%rdx
  402728:	20 75 6e 
  40272b:	48 89 45 00          	mov    %rax,0x0(%rbp)
  40272f:	48 89 55 08          	mov    %rdx,0x8(%rbp)
  402733:	48 b8 61 62 6c 65 20 	movabs $0x206f7420656c6261,%rax
  40273a:	74 6f 20 
  40273d:	48 ba 63 72 65 61 74 	movabs $0x7320657461657263,%rdx
  402744:	65 20 73 
  402747:	48 89 45 10          	mov    %rax,0x10(%rbp)
  40274b:	48 89 55 18          	mov    %rdx,0x18(%rbp)
  40274f:	c7 45 20 6f 63 6b 65 	movl   $0x656b636f,0x20(%rbp)
  402756:	66 c7 45 24 74 00    	movw   $0x74,0x24(%rbp)
  40275c:	b8 ff ff ff ff       	mov    $0xffffffff,%eax
  402761:	eb 8b                	jmp    4026ee <submitr+0x2d7>
  402763:	48 b8 45 72 72 6f 72 	movabs $0x44203a726f727245,%rax
  40276a:	3a 20 44 
  40276d:	48 ba 4e 53 20 69 73 	movabs $0x6e7520736920534e,%rdx
  402774:	20 75 6e 
  402777:	48 89 45 00          	mov    %rax,0x0(%rbp)
  40277b:	48 89 55 08          	mov    %rdx,0x8(%rbp)
  40277f:	48 b8 61 62 6c 65 20 	movabs $0x206f7420656c6261,%rax
  402786:	74 6f 20 
  402789:	48 ba 72 65 73 6f 6c 	movabs $0x2065766c6f736572,%rdx
  402790:	76 65 20 
  402793:	48 89 45 10          	mov    %rax,0x10(%rbp)
  402797:	48 89 55 18          	mov    %rdx,0x18(%rbp)
  40279b:	48 b8 73 65 72 76 65 	movabs $0x6120726576726573,%rax
  4027a2:	72 20 61 
  4027a5:	48 89 45 20          	mov    %rax,0x20(%rbp)
  4027a9:	c7 45 28 64 64 72 65 	movl   $0x65726464,0x28(%rbp)
  4027b0:	66 c7 45 2c 73 73    	movw   $0x7373,0x2c(%rbp)
  4027b6:	c6 45 2e 00          	movb   $0x0,0x2e(%rbp)
  4027ba:	89 df                	mov    %ebx,%edi
  4027bc:	e8 5f e5 ff ff       	callq  400d20 <close@plt>
  4027c1:	b8 ff ff ff ff       	mov    $0xffffffff,%eax
  4027c6:	e9 23 ff ff ff       	jmpq   4026ee <submitr+0x2d7>
  4027cb:	48 b8 45 72 72 6f 72 	movabs $0x55203a726f727245,%rax
  4027d2:	3a 20 55 
  4027d5:	48 ba 6e 61 62 6c 65 	movabs $0x6f7420656c62616e,%rdx
  4027dc:	20 74 6f 
  4027df:	48 89 45 00          	mov    %rax,0x0(%rbp)
  4027e3:	48 89 55 08          	mov    %rdx,0x8(%rbp)
  4027e7:	48 b8 20 63 6f 6e 6e 	movabs $0x7463656e6e6f6320,%rax
  4027ee:	65 63 74 
  4027f1:	48 ba 20 74 6f 20 74 	movabs $0x20656874206f7420,%rdx
  4027f8:	68 65 20 
  4027fb:	48 89 45 10          	mov    %rax,0x10(%rbp)
  4027ff:	48 89 55 18          	mov    %rdx,0x18(%rbp)
  402803:	c7 45 20 73 65 72 76 	movl   $0x76726573,0x20(%rbp)
  40280a:	66 c7 45 24 65 72    	movw   $0x7265,0x24(%rbp)
  402810:	c6 45 26 00          	movb   $0x0,0x26(%rbp)
  402814:	89 df                	mov    %ebx,%edi
  402816:	e8 05 e5 ff ff       	callq  400d20 <close@plt>
  40281b:	b8 ff ff ff ff       	mov    $0xffffffff,%eax
  402820:	e9 c9 fe ff ff       	jmpq   4026ee <submitr+0x2d7>
  402825:	48 b8 45 72 72 6f 72 	movabs $0x52203a726f727245,%rax
  40282c:	3a 20 52 
  40282f:	48 ba 65 73 75 6c 74 	movabs $0x747320746c757365,%rdx
  402836:	20 73 74 
  402839:	48 89 45 00          	mov    %rax,0x0(%rbp)
  40283d:	48 89 55 08          	mov    %rdx,0x8(%rbp)
  402841:	48 b8 72 69 6e 67 20 	movabs $0x6f6f7420676e6972,%rax
  402848:	74 6f 6f 
  40284b:	48 ba 20 6c 61 72 67 	movabs $0x202e656772616c20,%rdx
  402852:	65 2e 20 
  402855:	48 89 45 10          	mov    %rax,0x10(%rbp)
  402859:	48 89 55 18          	mov    %rdx,0x18(%rbp)
  40285d:	48 b8 49 6e 63 72 65 	movabs $0x6573616572636e49,%rax
  402864:	61 73 65 
  402867:	48 ba 20 53 55 42 4d 	movabs $0x5254494d42555320,%rdx
  40286e:	49 54 52 
  402871:	48 89 45 20          	mov    %rax,0x20(%rbp)
  402875:	48 89 55 28          	mov    %rdx,0x28(%rbp)
  402879:	48 b8 5f 4d 41 58 42 	movabs $0x46554258414d5f,%rax
  402880:	55 46 00 
  402883:	48 89 45 30          	mov    %rax,0x30(%rbp)
  402887:	89 df                	mov    %ebx,%edi
  402889:	e8 92 e4 ff ff       	callq  400d20 <close@plt>
  40288e:	b8 ff ff ff ff       	mov    $0xffffffff,%eax
  402893:	e9 56 fe ff ff       	jmpq   4026ee <submitr+0x2d7>
  402898:	48 b8 45 72 72 6f 72 	movabs $0x52203a726f727245,%rax
  40289f:	3a 20 52 
  4028a2:	48 ba 65 73 75 6c 74 	movabs $0x747320746c757365,%rdx
  4028a9:	20 73 74 
  4028ac:	48 89 45 00          	mov    %rax,0x0(%rbp)
  4028b0:	48 89 55 08          	mov    %rdx,0x8(%rbp)
  4028b4:	48 b8 72 69 6e 67 20 	movabs $0x6e6f6320676e6972,%rax
  4028bb:	63 6f 6e 
  4028be:	48 ba 74 61 69 6e 73 	movabs $0x6e6120736e696174,%rdx
  4028c5:	20 61 6e 
  4028c8:	48 89 45 10          	mov    %rax,0x10(%rbp)
  4028cc:	48 89 55 18          	mov    %rdx,0x18(%rbp)
  4028d0:	48 b8 20 69 6c 6c 65 	movabs $0x6c6167656c6c6920,%rax
  4028d7:	67 61 6c 
  4028da:	48 ba 20 6f 72 20 75 	movabs $0x72706e7520726f20,%rdx
  4028e1:	6e 70 72 
  4028e4:	48 89 45 20          	mov    %rax,0x20(%rbp)
  4028e8:	48 89 55 28          	mov    %rdx,0x28(%rbp)
  4028ec:	48 b8 69 6e 74 61 62 	movabs $0x20656c6261746e69,%rax
  4028f3:	6c 65 20 
  4028f6:	48 ba 63 68 61 72 61 	movabs $0x6574636172616863,%rdx
  4028fd:	63 74 65 
  402900:	48 89 45 30          	mov    %rax,0x30(%rbp)
  402904:	48 89 55 38          	mov    %rdx,0x38(%rbp)
  402908:	66 c7 45 40 72 2e    	movw   $0x2e72,0x40(%rbp)
  40290e:	c6 45 42 00          	movb   $0x0,0x42(%rbp)
  402912:	89 df                	mov    %ebx,%edi
  402914:	e8 07 e4 ff ff       	callq  400d20 <close@plt>
  402919:	b8 ff ff ff ff       	mov    $0xffffffff,%eax
  40291e:	e9 cb fd ff ff       	jmpq   4026ee <submitr+0x2d7>
  402923:	48 b8 45 72 72 6f 72 	movabs $0x43203a726f727245,%rax
  40292a:	3a 20 43 
  40292d:	48 ba 6c 69 65 6e 74 	movabs $0x6e7520746e65696c,%rdx
  402934:	20 75 6e 
  402937:	48 89 45 00          	mov    %rax,0x0(%rbp)
  40293b:	48 89 55 08          	mov    %rdx,0x8(%rbp)
  40293f:	48 b8 61 62 6c 65 20 	movabs $0x206f7420656c6261,%rax
  402946:	74 6f 20 
  402949:	48 ba 77 72 69 74 65 	movabs $0x6f74206574697277,%rdx
  402950:	20 74 6f 
  402953:	48 89 45 10          	mov    %rax,0x10(%rbp)
  402957:	48 89 55 18          	mov    %rdx,0x18(%rbp)
  40295b:	48 b8 20 74 68 65 20 	movabs $0x7365722065687420,%rax
  402962:	72 65 73 
  402965:	48 ba 75 6c 74 20 73 	movabs $0x7672657320746c75,%rdx
  40296c:	65 72 76 
  40296f:	48 89 45 20          	mov    %rax,0x20(%rbp)
  402973:	48 89 55 28          	mov    %rdx,0x28(%rbp)
  402977:	66 c7 45 30 65 72    	movw   $0x7265,0x30(%rbp)
  40297d:	c6 45 32 00          	movb   $0x0,0x32(%rbp)
  402981:	89 df                	mov    %ebx,%edi
  402983:	e8 98 e3 ff ff       	callq  400d20 <close@plt>
  402988:	b8 ff ff ff ff       	mov    $0xffffffff,%eax
  40298d:	e9 5c fd ff ff       	jmpq   4026ee <submitr+0x2d7>
  402992:	48 b8 45 72 72 6f 72 	movabs $0x43203a726f727245,%rax
  402999:	3a 20 43 
  40299c:	48 ba 6c 69 65 6e 74 	movabs $0x6e7520746e65696c,%rdx
  4029a3:	20 75 6e 
  4029a6:	48 89 45 00          	mov    %rax,0x0(%rbp)
  4029aa:	48 89 55 08          	mov    %rdx,0x8(%rbp)
  4029ae:	48 b8 61 62 6c 65 20 	movabs $0x206f7420656c6261,%rax
  4029b5:	74 6f 20 
  4029b8:	48 ba 72 65 61 64 20 	movabs $0x7269662064616572,%rdx
  4029bf:	66 69 72 
  4029c2:	48 89 45 10          	mov    %rax,0x10(%rbp)
  4029c6:	48 89 55 18          	mov    %rdx,0x18(%rbp)
  4029ca:	48 b8 73 74 20 68 65 	movabs $0x6564616568207473,%rax
  4029d1:	61 64 65 
  4029d4:	48 ba 72 20 66 72 6f 	movabs $0x72206d6f72662072,%rdx
  4029db:	6d 20 72 
  4029de:	48 89 45 20          	mov    %rax,0x20(%rbp)
  4029e2:	48 89 55 28          	mov    %rdx,0x28(%rbp)
  4029e6:	48 b8 65 73 75 6c 74 	movabs $0x657320746c757365,%rax
  4029ed:	20 73 65 
  4029f0:	48 89 45 30          	mov    %rax,0x30(%rbp)
  4029f4:	c7 45 38 72 76 65 72 	movl   $0x72657672,0x38(%rbp)
  4029fb:	c6 45 3c 00          	movb   $0x0,0x3c(%rbp)
  4029ff:	89 df                	mov    %ebx,%edi
  402a01:	e8 1a e3 ff ff       	callq  400d20 <close@plt>
  402a06:	b8 ff ff ff ff       	mov    $0xffffffff,%eax
  402a0b:	e9 de fc ff ff       	jmpq   4026ee <submitr+0x2d7>
  402a10:	ba 00 20 00 00       	mov    $0x2000,%edx
  402a15:	48 8d b4 24 40 20 00 	lea    0x2040(%rsp),%rsi
  402a1c:	00 
  402a1d:	48 8d 7c 24 30       	lea    0x30(%rsp),%rdi
  402a22:	e8 3b f8 ff ff       	callq  402262 <rio_readlineb>
  402a27:	48 85 c0             	test   %rax,%rax
  402a2a:	0f 8e 90 00 00 00    	jle    402ac0 <submitr+0x6a9>
  402a30:	44 8b 44 24 1c       	mov    0x1c(%rsp),%r8d
  402a35:	41 81 f8 c8 00 00 00 	cmp    $0xc8,%r8d
  402a3c:	0f 85 02 01 00 00    	jne    402b44 <submitr+0x72d>
  402a42:	48 8d b4 24 40 20 00 	lea    0x2040(%rsp),%rsi
  402a49:	00 
  402a4a:	48 89 ef             	mov    %rbp,%rdi
  402a4d:	e8 5e e2 ff ff       	callq  400cb0 <strcpy@plt>
  402a52:	89 df                	mov    %ebx,%edi
  402a54:	e8 c7 e2 ff ff       	callq  400d20 <close@plt>
  402a59:	bf 10 37 40 00       	mov    $0x403710,%edi
  402a5e:	b9 04 00 00 00       	mov    $0x4,%ecx
  402a63:	48 89 ee             	mov    %rbp,%rsi
  402a66:	f3 a6                	repz cmpsb %es:(%rdi),%ds:(%rsi)
  402a68:	0f 97 c0             	seta   %al
  402a6b:	1c 00                	sbb    $0x0,%al
  402a6d:	0f be c0             	movsbl %al,%eax
  402a70:	85 c0                	test   %eax,%eax
  402a72:	0f 84 76 fc ff ff    	je     4026ee <submitr+0x2d7>
  402a78:	bf 14 37 40 00       	mov    $0x403714,%edi
  402a7d:	b9 05 00 00 00       	mov    $0x5,%ecx
  402a82:	48 89 ee             	mov    %rbp,%rsi
  402a85:	f3 a6                	repz cmpsb %es:(%rdi),%ds:(%rsi)
  402a87:	0f 97 c0             	seta   %al
  402a8a:	1c 00                	sbb    $0x0,%al
  402a8c:	0f be c0             	movsbl %al,%eax
  402a8f:	85 c0                	test   %eax,%eax
  402a91:	0f 84 57 fc ff ff    	je     4026ee <submitr+0x2d7>
  402a97:	bf 19 37 40 00       	mov    $0x403719,%edi
  402a9c:	b9 03 00 00 00       	mov    $0x3,%ecx
  402aa1:	48 89 ee             	mov    %rbp,%rsi
  402aa4:	f3 a6                	repz cmpsb %es:(%rdi),%ds:(%rsi)
  402aa6:	0f 97 c0             	seta   %al
  402aa9:	1c 00                	sbb    $0x0,%al
  402aab:	0f be c0             	movsbl %al,%eax
  402aae:	85 c0                	test   %eax,%eax
  402ab0:	0f 84 38 fc ff ff    	je     4026ee <submitr+0x2d7>
  402ab6:	b8 ff ff ff ff       	mov    $0xffffffff,%eax
  402abb:	e9 2e fc ff ff       	jmpq   4026ee <submitr+0x2d7>
  402ac0:	48 b8 45 72 72 6f 72 	movabs $0x43203a726f727245,%rax
  402ac7:	3a 20 43 
  402aca:	48 ba 6c 69 65 6e 74 	movabs $0x6e7520746e65696c,%rdx
  402ad1:	20 75 6e 
  402ad4:	48 89 45 00          	mov    %rax,0x0(%rbp)
  402ad8:	48 89 55 08          	mov    %rdx,0x8(%rbp)
  402adc:	48 b8 61 62 6c 65 20 	movabs $0x206f7420656c6261,%rax
  402ae3:	74 6f 20 
  402ae6:	48 ba 72 65 61 64 20 	movabs $0x6174732064616572,%rdx
  402aed:	73 74 61 
  402af0:	48 89 45 10          	mov    %rax,0x10(%rbp)
  402af4:	48 89 55 18          	mov    %rdx,0x18(%rbp)
  402af8:	48 b8 74 75 73 20 6d 	movabs $0x7373656d20737574,%rax
  402aff:	65 73 73 
  402b02:	48 ba 61 67 65 20 66 	movabs $0x6d6f726620656761,%rdx
  402b09:	72 6f 6d 
  402b0c:	48 89 45 20          	mov    %rax,0x20(%rbp)
  402b10:	48 89 55 28          	mov    %rdx,0x28(%rbp)
  402b14:	48 b8 20 72 65 73 75 	movabs $0x20746c7573657220,%rax
  402b1b:	6c 74 20 
  402b1e:	48 89 45 30          	mov    %rax,0x30(%rbp)
  402b22:	c7 45 38 73 65 72 76 	movl   $0x76726573,0x38(%rbp)
  402b29:	66 c7 45 3c 65 72    	movw   $0x7265,0x3c(%rbp)
  402b2f:	c6 45 3e 00          	movb   $0x0,0x3e(%rbp)
  402b33:	89 df                	mov    %ebx,%edi
  402b35:	e8 e6 e1 ff ff       	callq  400d20 <close@plt>
  402b3a:	b8 ff ff ff ff       	mov    $0xffffffff,%eax
  402b3f:	e9 aa fb ff ff       	jmpq   4026ee <submitr+0x2d7>
  402b44:	4c 8d 8c 24 40 80 00 	lea    0x8040(%rsp),%r9
  402b4b:	00 
  402b4c:	b9 c8 36 40 00       	mov    $0x4036c8,%ecx
  402b51:	48 c7 c2 ff ff ff ff 	mov    $0xffffffffffffffff,%rdx
  402b58:	be 01 00 00 00       	mov    $0x1,%esi
  402b5d:	48 89 ef             	mov    %rbp,%rdi
  402b60:	b8 00 00 00 00       	mov    $0x0,%eax
  402b65:	e8 f6 e2 ff ff       	callq  400e60 <__sprintf_chk@plt>
  402b6a:	89 df                	mov    %ebx,%edi
  402b6c:	e8 af e1 ff ff       	callq  400d20 <close@plt>
  402b71:	b8 ff ff ff ff       	mov    $0xffffffff,%eax
  402b76:	e9 73 fb ff ff       	jmpq   4026ee <submitr+0x2d7>
  402b7b:	e8 60 e1 ff ff       	callq  400ce0 <__stack_chk_fail@plt>

0000000000402b80 <init_timeout>:
  402b80:	85 ff                	test   %edi,%edi
  402b82:	74 26                	je     402baa <init_timeout+0x2a>
  402b84:	53                   	push   %rbx
  402b85:	89 fb                	mov    %edi,%ebx
  402b87:	85 ff                	test   %edi,%edi
  402b89:	78 18                	js     402ba3 <init_timeout+0x23>
  402b8b:	be 4b 21 40 00       	mov    $0x40214b,%esi
  402b90:	bf 0e 00 00 00       	mov    $0xe,%edi
  402b95:	e8 a6 e1 ff ff       	callq  400d40 <signal@plt>
  402b9a:	89 df                	mov    %ebx,%edi
  402b9c:	e8 6f e1 ff ff       	callq  400d10 <alarm@plt>
  402ba1:	5b                   	pop    %rbx
  402ba2:	c3                   	retq   
  402ba3:	bb 00 00 00 00       	mov    $0x0,%ebx
  402ba8:	eb e1                	jmp    402b8b <init_timeout+0xb>
  402baa:	f3 c3                	repz retq 

0000000000402bac <init_driver>:
  402bac:	55                   	push   %rbp
  402bad:	53                   	push   %rbx
  402bae:	48 83 ec 28          	sub    $0x28,%rsp
  402bb2:	48 89 fd             	mov    %rdi,%rbp
  402bb5:	64 48 8b 04 25 28 00 	mov    %fs:0x28,%rax
  402bbc:	00 00 
  402bbe:	48 89 44 24 18       	mov    %rax,0x18(%rsp)
  402bc3:	31 c0                	xor    %eax,%eax
  402bc5:	be 01 00 00 00       	mov    $0x1,%esi
  402bca:	bf 0d 00 00 00       	mov    $0xd,%edi
  402bcf:	e8 6c e1 ff ff       	callq  400d40 <signal@plt>
  402bd4:	be 01 00 00 00       	mov    $0x1,%esi
  402bd9:	bf 1d 00 00 00       	mov    $0x1d,%edi
  402bde:	e8 5d e1 ff ff       	callq  400d40 <signal@plt>
  402be3:	be 01 00 00 00       	mov    $0x1,%esi
  402be8:	bf 1d 00 00 00       	mov    $0x1d,%edi
  402bed:	e8 4e e1 ff ff       	callq  400d40 <signal@plt>
  402bf2:	ba 00 00 00 00       	mov    $0x0,%edx
  402bf7:	be 01 00 00 00       	mov    $0x1,%esi
  402bfc:	bf 02 00 00 00       	mov    $0x2,%edi
  402c01:	e8 6a e2 ff ff       	callq  400e70 <socket@plt>
  402c06:	85 c0                	test   %eax,%eax
  402c08:	0f 88 9c 00 00 00    	js     402caa <init_driver+0xfe>
  402c0e:	89 c3                	mov    %eax,%ebx
  402c10:	bf 1d 32 40 00       	mov    $0x40321d,%edi
  402c15:	e8 36 e1 ff ff       	callq  400d50 <gethostbyname@plt>
  402c1a:	48 85 c0             	test   %rax,%rax
  402c1d:	0f 84 d3 00 00 00    	je     402cf6 <init_driver+0x14a>
  402c23:	48 c7 44 24 02 00 00 	movq   $0x0,0x2(%rsp)
  402c2a:	00 00 
  402c2c:	c7 44 24 0a 00 00 00 	movl   $0x0,0xa(%rsp)
  402c33:	00 
  402c34:	66 c7 44 24 0e 00 00 	movw   $0x0,0xe(%rsp)
  402c3b:	66 c7 04 24 02 00    	movw   $0x2,(%rsp)
  402c41:	48 63 50 14          	movslq 0x14(%rax),%rdx
  402c45:	48 8b 40 18          	mov    0x18(%rax),%rax
  402c49:	48 8b 30             	mov    (%rax),%rsi
  402c4c:	48 8d 7c 24 04       	lea    0x4(%rsp),%rdi
  402c51:	b9 0c 00 00 00       	mov    $0xc,%ecx
  402c56:	e8 05 e1 ff ff       	callq  400d60 <__memmove_chk@plt>
  402c5b:	66 c7 44 24 02 3b d2 	movw   $0xd23b,0x2(%rsp)
  402c62:	ba 10 00 00 00       	mov    $0x10,%edx
  402c67:	48 89 e6             	mov    %rsp,%rsi
  402c6a:	89 df                	mov    %ebx,%edi
  402c6c:	e8 cf e1 ff ff       	callq  400e40 <connect@plt>
  402c71:	85 c0                	test   %eax,%eax
  402c73:	0f 88 e5 00 00 00    	js     402d5e <init_driver+0x1b2>
  402c79:	89 df                	mov    %ebx,%edi
  402c7b:	e8 a0 e0 ff ff       	callq  400d20 <close@plt>
  402c80:	66 c7 45 00 4f 4b    	movw   $0x4b4f,0x0(%rbp)
  402c86:	c6 45 02 00          	movb   $0x0,0x2(%rbp)
  402c8a:	b8 00 00 00 00       	mov    $0x0,%eax
  402c8f:	48 8b 4c 24 18       	mov    0x18(%rsp),%rcx
  402c94:	64 48 33 0c 25 28 00 	xor    %fs:0x28,%rcx
  402c9b:	00 00 
  402c9d:	0f 85 0e 01 00 00    	jne    402db1 <init_driver+0x205>
  402ca3:	48 83 c4 28          	add    $0x28,%rsp
  402ca7:	5b                   	pop    %rbx
  402ca8:	5d                   	pop    %rbp
  402ca9:	c3                   	retq   
  402caa:	48 b8 45 72 72 6f 72 	movabs $0x43203a726f727245,%rax
  402cb1:	3a 20 43 
  402cb4:	48 ba 6c 69 65 6e 74 	movabs $0x6e7520746e65696c,%rdx
  402cbb:	20 75 6e 
  402cbe:	48 89 45 00          	mov    %rax,0x0(%rbp)
  402cc2:	48 89 55 08          	mov    %rdx,0x8(%rbp)
  402cc6:	48 b8 61 62 6c 65 20 	movabs $0x206f7420656c6261,%rax
  402ccd:	74 6f 20 
  402cd0:	48 ba 63 72 65 61 74 	movabs $0x7320657461657263,%rdx
  402cd7:	65 20 73 
  402cda:	48 89 45 10          	mov    %rax,0x10(%rbp)
  402cde:	48 89 55 18          	mov    %rdx,0x18(%rbp)
  402ce2:	c7 45 20 6f 63 6b 65 	movl   $0x656b636f,0x20(%rbp)
  402ce9:	66 c7 45 24 74 00    	movw   $0x74,0x24(%rbp)
  402cef:	b8 ff ff ff ff       	mov    $0xffffffff,%eax
  402cf4:	eb 99                	jmp    402c8f <init_driver+0xe3>
  402cf6:	48 b8 45 72 72 6f 72 	movabs $0x44203a726f727245,%rax
  402cfd:	3a 20 44 
  402d00:	48 ba 4e 53 20 69 73 	movabs $0x6e7520736920534e,%rdx
  402d07:	20 75 6e 
  402d0a:	48 89 45 00          	mov    %rax,0x0(%rbp)
  402d0e:	48 89 55 08          	mov    %rdx,0x8(%rbp)
  402d12:	48 b8 61 62 6c 65 20 	movabs $0x206f7420656c6261,%rax
  402d19:	74 6f 20 
  402d1c:	48 ba 72 65 73 6f 6c 	movabs $0x2065766c6f736572,%rdx
  402d23:	76 65 20 
  402d26:	48 89 45 10          	mov    %rax,0x10(%rbp)
  402d2a:	48 89 55 18          	mov    %rdx,0x18(%rbp)
  402d2e:	48 b8 73 65 72 76 65 	movabs $0x6120726576726573,%rax
  402d35:	72 20 61 
  402d38:	48 89 45 20          	mov    %rax,0x20(%rbp)
  402d3c:	c7 45 28 64 64 72 65 	movl   $0x65726464,0x28(%rbp)
  402d43:	66 c7 45 2c 73 73    	movw   $0x7373,0x2c(%rbp)
  402d49:	c6 45 2e 00          	movb   $0x0,0x2e(%rbp)
  402d4d:	89 df                	mov    %ebx,%edi
  402d4f:	e8 cc df ff ff       	callq  400d20 <close@plt>
  402d54:	b8 ff ff ff ff       	mov    $0xffffffff,%eax
  402d59:	e9 31 ff ff ff       	jmpq   402c8f <init_driver+0xe3>
  402d5e:	48 b8 45 72 72 6f 72 	movabs $0x55203a726f727245,%rax
  402d65:	3a 20 55 
  402d68:	48 ba 6e 61 62 6c 65 	movabs $0x6f7420656c62616e,%rdx
  402d6f:	20 74 6f 
  402d72:	48 89 45 00          	mov    %rax,0x0(%rbp)
  402d76:	48 89 55 08          	mov    %rdx,0x8(%rbp)
  402d7a:	48 b8 20 63 6f 6e 6e 	movabs $0x7463656e6e6f6320,%rax
  402d81:	65 63 74 
  402d84:	48 ba 20 74 6f 20 73 	movabs $0x76726573206f7420,%rdx
  402d8b:	65 72 76 
  402d8e:	48 89 45 10          	mov    %rax,0x10(%rbp)
  402d92:	48 89 55 18          	mov    %rdx,0x18(%rbp)
  402d96:	66 c7 45 20 65 72    	movw   $0x7265,0x20(%rbp)
  402d9c:	c6 45 22 00          	movb   $0x0,0x22(%rbp)
  402da0:	89 df                	mov    %ebx,%edi
  402da2:	e8 79 df ff ff       	callq  400d20 <close@plt>
  402da7:	b8 ff ff ff ff       	mov    $0xffffffff,%eax
  402dac:	e9 de fe ff ff       	jmpq   402c8f <init_driver+0xe3>
  402db1:	e8 2a df ff ff       	callq  400ce0 <__stack_chk_fail@plt>

0000000000402db6 <driver_post>:
  402db6:	53                   	push   %rbx
  402db7:	4c 89 cb             	mov    %r9,%rbx
  402dba:	45 85 c0             	test   %r8d,%r8d
  402dbd:	75 18                	jne    402dd7 <driver_post+0x21>
  402dbf:	48 85 ff             	test   %rdi,%rdi
  402dc2:	74 05                	je     402dc9 <driver_post+0x13>
  402dc4:	80 3f 00             	cmpb   $0x0,(%rdi)
  402dc7:	75 35                	jne    402dfe <driver_post+0x48>
  402dc9:	66 c7 03 4f 4b       	movw   $0x4b4f,(%rbx)
  402dce:	c6 43 02 00          	movb   $0x0,0x2(%rbx)
  402dd2:	44 89 c0             	mov    %r8d,%eax
  402dd5:	5b                   	pop    %rbx
  402dd6:	c3                   	retq   
  402dd7:	48 89 ca             	mov    %rcx,%rdx
  402dda:	be 1c 37 40 00       	mov    $0x40371c,%esi
  402ddf:	bf 01 00 00 00       	mov    $0x1,%edi
  402de4:	b8 00 00 00 00       	mov    $0x0,%eax
  402de9:	e8 f2 df ff ff       	callq  400de0 <__printf_chk@plt>
  402dee:	66 c7 03 4f 4b       	movw   $0x4b4f,(%rbx)
  402df3:	c6 43 02 00          	movb   $0x0,0x2(%rbx)
  402df7:	b8 00 00 00 00       	mov    $0x0,%eax
  402dfc:	eb d7                	jmp    402dd5 <driver_post+0x1f>
  402dfe:	48 83 ec 08          	sub    $0x8,%rsp
  402e02:	41 51                	push   %r9
  402e04:	49 89 c9             	mov    %rcx,%r9
  402e07:	49 89 d0             	mov    %rdx,%r8
  402e0a:	48 89 f9             	mov    %rdi,%rcx
  402e0d:	48 89 f2             	mov    %rsi,%rdx
  402e10:	be d2 3b 00 00       	mov    $0x3bd2,%esi
  402e15:	bf 1d 32 40 00       	mov    $0x40321d,%edi
  402e1a:	e8 f8 f5 ff ff       	callq  402417 <submitr>
  402e1f:	48 83 c4 10          	add    $0x10,%rsp
  402e23:	eb b0                	jmp    402dd5 <driver_post+0x1f>

0000000000402e25 <check>:
  402e25:	89 f8                	mov    %edi,%eax
  402e27:	c1 e8 1c             	shr    $0x1c,%eax
  402e2a:	85 c0                	test   %eax,%eax
  402e2c:	74 1d                	je     402e4b <check+0x26>
  402e2e:	b9 00 00 00 00       	mov    $0x0,%ecx
  402e33:	83 f9 1f             	cmp    $0x1f,%ecx
  402e36:	7f 0d                	jg     402e45 <check+0x20>
  402e38:	89 f8                	mov    %edi,%eax
  402e3a:	d3 e8                	shr    %cl,%eax
  402e3c:	3c 0a                	cmp    $0xa,%al
  402e3e:	74 11                	je     402e51 <check+0x2c>
  402e40:	83 c1 08             	add    $0x8,%ecx
  402e43:	eb ee                	jmp    402e33 <check+0xe>
  402e45:	b8 01 00 00 00       	mov    $0x1,%eax
  402e4a:	c3                   	retq   
  402e4b:	b8 00 00 00 00       	mov    $0x0,%eax
  402e50:	c3                   	retq   
  402e51:	b8 00 00 00 00       	mov    $0x0,%eax
  402e56:	c3                   	retq   

0000000000402e57 <gencookie>:
  402e57:	53                   	push   %rbx
  402e58:	83 c7 01             	add    $0x1,%edi
  402e5b:	e8 30 de ff ff       	callq  400c90 <srandom@plt>
  402e60:	e8 3b df ff ff       	callq  400da0 <random@plt>
  402e65:	89 c3                	mov    %eax,%ebx
  402e67:	89 c7                	mov    %eax,%edi
  402e69:	e8 b7 ff ff ff       	callq  402e25 <check>
  402e6e:	85 c0                	test   %eax,%eax
  402e70:	74 ee                	je     402e60 <gencookie+0x9>
  402e72:	89 d8                	mov    %ebx,%eax
  402e74:	5b                   	pop    %rbx
  402e75:	c3                   	retq   
  402e76:	66 2e 0f 1f 84 00 00 	nopw   %cs:0x0(%rax,%rax,1)
  402e7d:	00 00 00 

0000000000402e80 <__libc_csu_init>:
  402e80:	41 57                	push   %r15
  402e82:	41 56                	push   %r14
  402e84:	49 89 d7             	mov    %rdx,%r15
  402e87:	41 55                	push   %r13
  402e89:	41 54                	push   %r12
  402e8b:	4c 8d 25 7e 1f 20 00 	lea    0x201f7e(%rip),%r12        # 604e10 <__frame_dummy_init_array_entry>
  402e92:	55                   	push   %rbp
  402e93:	48 8d 2d 7e 1f 20 00 	lea    0x201f7e(%rip),%rbp        # 604e18 <__init_array_end>
  402e9a:	53                   	push   %rbx
  402e9b:	41 89 fd             	mov    %edi,%r13d
  402e9e:	49 89 f6             	mov    %rsi,%r14
  402ea1:	4c 29 e5             	sub    %r12,%rbp
  402ea4:	48 83 ec 08          	sub    $0x8,%rsp
  402ea8:	48 c1 fd 03          	sar    $0x3,%rbp
  402eac:	e8 97 dd ff ff       	callq  400c48 <_init>
  402eb1:	48 85 ed             	test   %rbp,%rbp
  402eb4:	74 20                	je     402ed6 <__libc_csu_init+0x56>
  402eb6:	31 db                	xor    %ebx,%ebx
  402eb8:	0f 1f 84 00 00 00 00 	nopl   0x0(%rax,%rax,1)
  402ebf:	00 
  402ec0:	4c 89 fa             	mov    %r15,%rdx
  402ec3:	4c 89 f6             	mov    %r14,%rsi
  402ec6:	44 89 ef             	mov    %r13d,%edi
  402ec9:	41 ff 14 dc          	callq  *(%r12,%rbx,8)
  402ecd:	48 83 c3 01          	add    $0x1,%rbx
  402ed1:	48 39 dd             	cmp    %rbx,%rbp
  402ed4:	75 ea                	jne    402ec0 <__libc_csu_init+0x40>
  402ed6:	48 83 c4 08          	add    $0x8,%rsp
  402eda:	5b                   	pop    %rbx
  402edb:	5d                   	pop    %rbp
  402edc:	41 5c                	pop    %r12
  402ede:	41 5d                	pop    %r13
  402ee0:	41 5e                	pop    %r14
  402ee2:	41 5f                	pop    %r15
  402ee4:	c3                   	retq   
  402ee5:	90                   	nop
  402ee6:	66 2e 0f 1f 84 00 00 	nopw   %cs:0x0(%rax,%rax,1)
  402eed:	00 00 00 

0000000000402ef0 <__libc_csu_fini>:
  402ef0:	f3 c3                	repz retq 

Disassembly of section .fini:

0000000000402ef4 <_fini>:
  402ef4:	48 83 ec 08          	sub    $0x8,%rsp
  402ef8:	48 83 c4 08          	add    $0x8,%rsp
  402efc:	c3                   	retq   
