
rtarget:     file format elf64-x86-64


Disassembly of section .init:

0000000000400c48 <_init>:
  400c48:	48 83 ec 08          	sub    $0x8,%rsp
  400c4c:	48 8b 05 a5 43 20 00 	mov    0x2043a5(%rip),%rax        # 604ff8 <__gmon_start__>
  400c53:	48 85 c0             	test   %rax,%rax
  400c56:	74 02                	je     400c5a <_init+0x12>
  400c58:	ff d0                	callq  *%rax
  400c5a:	48 83 c4 08          	add    $0x8,%rsp
  400c5e:	c3                   	retq   

Disassembly of section .plt:

0000000000400c60 <.plt>:
  400c60:	ff 35 a2 43 20 00    	pushq  0x2043a2(%rip)        # 605008 <_GLOBAL_OFFSET_TABLE_+0x8>
  400c66:	ff 25 a4 43 20 00    	jmpq   *0x2043a4(%rip)        # 605010 <_GLOBAL_OFFSET_TABLE_+0x10>
  400c6c:	0f 1f 40 00          	nopl   0x0(%rax)

0000000000400c70 <strcasecmp@plt>:
  400c70:	ff 25 a2 43 20 00    	jmpq   *0x2043a2(%rip)        # 605018 <strcasecmp@GLIBC_2.2.5>
  400c76:	68 00 00 00 00       	pushq  $0x0
  400c7b:	e9 e0 ff ff ff       	jmpq   400c60 <.plt>

0000000000400c80 <__errno_location@plt>:
  400c80:	ff 25 9a 43 20 00    	jmpq   *0x20439a(%rip)        # 605020 <__errno_location@GLIBC_2.2.5>
  400c86:	68 01 00 00 00       	pushq  $0x1
  400c8b:	e9 d0 ff ff ff       	jmpq   400c60 <.plt>

0000000000400c90 <srandom@plt>:
  400c90:	ff 25 92 43 20 00    	jmpq   *0x204392(%rip)        # 605028 <srandom@GLIBC_2.2.5>
  400c96:	68 02 00 00 00       	pushq  $0x2
  400c9b:	e9 c0 ff ff ff       	jmpq   400c60 <.plt>

0000000000400ca0 <strncmp@plt>:
  400ca0:	ff 25 8a 43 20 00    	jmpq   *0x20438a(%rip)        # 605030 <strncmp@GLIBC_2.2.5>
  400ca6:	68 03 00 00 00       	pushq  $0x3
  400cab:	e9 b0 ff ff ff       	jmpq   400c60 <.plt>

0000000000400cb0 <strcpy@plt>:
  400cb0:	ff 25 82 43 20 00    	jmpq   *0x204382(%rip)        # 605038 <strcpy@GLIBC_2.2.5>
  400cb6:	68 04 00 00 00       	pushq  $0x4
  400cbb:	e9 a0 ff ff ff       	jmpq   400c60 <.plt>

0000000000400cc0 <puts@plt>:
  400cc0:	ff 25 7a 43 20 00    	jmpq   *0x20437a(%rip)        # 605040 <puts@GLIBC_2.2.5>
  400cc6:	68 05 00 00 00       	pushq  $0x5
  400ccb:	e9 90 ff ff ff       	jmpq   400c60 <.plt>

0000000000400cd0 <write@plt>:
  400cd0:	ff 25 72 43 20 00    	jmpq   *0x204372(%rip)        # 605048 <write@GLIBC_2.2.5>
  400cd6:	68 06 00 00 00       	pushq  $0x6
  400cdb:	e9 80 ff ff ff       	jmpq   400c60 <.plt>

0000000000400ce0 <__stack_chk_fail@plt>:
  400ce0:	ff 25 6a 43 20 00    	jmpq   *0x20436a(%rip)        # 605050 <__stack_chk_fail@GLIBC_2.4>
  400ce6:	68 07 00 00 00       	pushq  $0x7
  400ceb:	e9 70 ff ff ff       	jmpq   400c60 <.plt>

0000000000400cf0 <mmap@plt>:
  400cf0:	ff 25 62 43 20 00    	jmpq   *0x204362(%rip)        # 605058 <mmap@GLIBC_2.2.5>
  400cf6:	68 08 00 00 00       	pushq  $0x8
  400cfb:	e9 60 ff ff ff       	jmpq   400c60 <.plt>

0000000000400d00 <memset@plt>:
  400d00:	ff 25 5a 43 20 00    	jmpq   *0x20435a(%rip)        # 605060 <memset@GLIBC_2.2.5>
  400d06:	68 09 00 00 00       	pushq  $0x9
  400d0b:	e9 50 ff ff ff       	jmpq   400c60 <.plt>

0000000000400d10 <alarm@plt>:
  400d10:	ff 25 52 43 20 00    	jmpq   *0x204352(%rip)        # 605068 <alarm@GLIBC_2.2.5>
  400d16:	68 0a 00 00 00       	pushq  $0xa
  400d1b:	e9 40 ff ff ff       	jmpq   400c60 <.plt>

0000000000400d20 <close@plt>:
  400d20:	ff 25 4a 43 20 00    	jmpq   *0x20434a(%rip)        # 605070 <close@GLIBC_2.2.5>
  400d26:	68 0b 00 00 00       	pushq  $0xb
  400d2b:	e9 30 ff ff ff       	jmpq   400c60 <.plt>

0000000000400d30 <read@plt>:
  400d30:	ff 25 42 43 20 00    	jmpq   *0x204342(%rip)        # 605078 <read@GLIBC_2.2.5>
  400d36:	68 0c 00 00 00       	pushq  $0xc
  400d3b:	e9 20 ff ff ff       	jmpq   400c60 <.plt>

0000000000400d40 <signal@plt>:
  400d40:	ff 25 3a 43 20 00    	jmpq   *0x20433a(%rip)        # 605080 <signal@GLIBC_2.2.5>
  400d46:	68 0d 00 00 00       	pushq  $0xd
  400d4b:	e9 10 ff ff ff       	jmpq   400c60 <.plt>

0000000000400d50 <gethostbyname@plt>:
  400d50:	ff 25 32 43 20 00    	jmpq   *0x204332(%rip)        # 605088 <gethostbyname@GLIBC_2.2.5>
  400d56:	68 0e 00 00 00       	pushq  $0xe
  400d5b:	e9 00 ff ff ff       	jmpq   400c60 <.plt>

0000000000400d60 <__memmove_chk@plt>:
  400d60:	ff 25 2a 43 20 00    	jmpq   *0x20432a(%rip)        # 605090 <__memmove_chk@GLIBC_2.3.4>
  400d66:	68 0f 00 00 00       	pushq  $0xf
  400d6b:	e9 f0 fe ff ff       	jmpq   400c60 <.plt>

0000000000400d70 <strtol@plt>:
  400d70:	ff 25 22 43 20 00    	jmpq   *0x204322(%rip)        # 605098 <strtol@GLIBC_2.2.5>
  400d76:	68 10 00 00 00       	pushq  $0x10
  400d7b:	e9 e0 fe ff ff       	jmpq   400c60 <.plt>

0000000000400d80 <memcpy@plt>:
  400d80:	ff 25 1a 43 20 00    	jmpq   *0x20431a(%rip)        # 6050a0 <memcpy@GLIBC_2.14>
  400d86:	68 11 00 00 00       	pushq  $0x11
  400d8b:	e9 d0 fe ff ff       	jmpq   400c60 <.plt>

0000000000400d90 <time@plt>:
  400d90:	ff 25 12 43 20 00    	jmpq   *0x204312(%rip)        # 6050a8 <time@GLIBC_2.2.5>
  400d96:	68 12 00 00 00       	pushq  $0x12
  400d9b:	e9 c0 fe ff ff       	jmpq   400c60 <.plt>

0000000000400da0 <random@plt>:
  400da0:	ff 25 0a 43 20 00    	jmpq   *0x20430a(%rip)        # 6050b0 <random@GLIBC_2.2.5>
  400da6:	68 13 00 00 00       	pushq  $0x13
  400dab:	e9 b0 fe ff ff       	jmpq   400c60 <.plt>

0000000000400db0 <_IO_getc@plt>:
  400db0:	ff 25 02 43 20 00    	jmpq   *0x204302(%rip)        # 6050b8 <_IO_getc@GLIBC_2.2.5>
  400db6:	68 14 00 00 00       	pushq  $0x14
  400dbb:	e9 a0 fe ff ff       	jmpq   400c60 <.plt>

0000000000400dc0 <__isoc99_sscanf@plt>:
  400dc0:	ff 25 fa 42 20 00    	jmpq   *0x2042fa(%rip)        # 6050c0 <__isoc99_sscanf@GLIBC_2.7>
  400dc6:	68 15 00 00 00       	pushq  $0x15
  400dcb:	e9 90 fe ff ff       	jmpq   400c60 <.plt>

0000000000400dd0 <munmap@plt>:
  400dd0:	ff 25 f2 42 20 00    	jmpq   *0x2042f2(%rip)        # 6050c8 <munmap@GLIBC_2.2.5>
  400dd6:	68 16 00 00 00       	pushq  $0x16
  400ddb:	e9 80 fe ff ff       	jmpq   400c60 <.plt>

0000000000400de0 <__printf_chk@plt>:
  400de0:	ff 25 ea 42 20 00    	jmpq   *0x2042ea(%rip)        # 6050d0 <__printf_chk@GLIBC_2.3.4>
  400de6:	68 17 00 00 00       	pushq  $0x17
  400deb:	e9 70 fe ff ff       	jmpq   400c60 <.plt>

0000000000400df0 <fopen@plt>:
  400df0:	ff 25 e2 42 20 00    	jmpq   *0x2042e2(%rip)        # 6050d8 <fopen@GLIBC_2.2.5>
  400df6:	68 18 00 00 00       	pushq  $0x18
  400dfb:	e9 60 fe ff ff       	jmpq   400c60 <.plt>

0000000000400e00 <getopt@plt>:
  400e00:	ff 25 da 42 20 00    	jmpq   *0x2042da(%rip)        # 6050e0 <getopt@GLIBC_2.2.5>
  400e06:	68 19 00 00 00       	pushq  $0x19
  400e0b:	e9 50 fe ff ff       	jmpq   400c60 <.plt>

0000000000400e10 <strtoul@plt>:
  400e10:	ff 25 d2 42 20 00    	jmpq   *0x2042d2(%rip)        # 6050e8 <strtoul@GLIBC_2.2.5>
  400e16:	68 1a 00 00 00       	pushq  $0x1a
  400e1b:	e9 40 fe ff ff       	jmpq   400c60 <.plt>

0000000000400e20 <gethostname@plt>:
  400e20:	ff 25 ca 42 20 00    	jmpq   *0x2042ca(%rip)        # 6050f0 <gethostname@GLIBC_2.2.5>
  400e26:	68 1b 00 00 00       	pushq  $0x1b
  400e2b:	e9 30 fe ff ff       	jmpq   400c60 <.plt>

0000000000400e30 <exit@plt>:
  400e30:	ff 25 c2 42 20 00    	jmpq   *0x2042c2(%rip)        # 6050f8 <exit@GLIBC_2.2.5>
  400e36:	68 1c 00 00 00       	pushq  $0x1c
  400e3b:	e9 20 fe ff ff       	jmpq   400c60 <.plt>

0000000000400e40 <connect@plt>:
  400e40:	ff 25 ba 42 20 00    	jmpq   *0x2042ba(%rip)        # 605100 <connect@GLIBC_2.2.5>
  400e46:	68 1d 00 00 00       	pushq  $0x1d
  400e4b:	e9 10 fe ff ff       	jmpq   400c60 <.plt>

0000000000400e50 <__fprintf_chk@plt>:
  400e50:	ff 25 b2 42 20 00    	jmpq   *0x2042b2(%rip)        # 605108 <__fprintf_chk@GLIBC_2.3.4>
  400e56:	68 1e 00 00 00       	pushq  $0x1e
  400e5b:	e9 00 fe ff ff       	jmpq   400c60 <.plt>

0000000000400e60 <__sprintf_chk@plt>:
  400e60:	ff 25 aa 42 20 00    	jmpq   *0x2042aa(%rip)        # 605110 <__sprintf_chk@GLIBC_2.3.4>
  400e66:	68 1f 00 00 00       	pushq  $0x1f
  400e6b:	e9 f0 fd ff ff       	jmpq   400c60 <.plt>

0000000000400e70 <socket@plt>:
  400e70:	ff 25 a2 42 20 00    	jmpq   *0x2042a2(%rip)        # 605118 <socket@GLIBC_2.2.5>
  400e76:	68 20 00 00 00       	pushq  $0x20
  400e7b:	e9 e0 fd ff ff       	jmpq   400c60 <.plt>

Disassembly of section .text:

0000000000400e80 <_start>:
  400e80:	31 ed                	xor    %ebp,%ebp
  400e82:	49 89 d1             	mov    %rdx,%r9
  400e85:	5e                   	pop    %rsi
  400e86:	48 89 e2             	mov    %rsp,%rdx
  400e89:	48 83 e4 f0          	and    $0xfffffffffffffff0,%rsp
  400e8d:	50                   	push   %rax
  400e8e:	54                   	push   %rsp
  400e8f:	49 c7 c0 10 30 40 00 	mov    $0x403010,%r8
  400e96:	48 c7 c1 a0 2f 40 00 	mov    $0x402fa0,%rcx
  400e9d:	48 c7 c7 73 11 40 00 	mov    $0x401173,%rdi
  400ea4:	ff 15 46 41 20 00    	callq  *0x204146(%rip)        # 604ff0 <__libc_start_main@GLIBC_2.2.5>
  400eaa:	f4                   	hlt    
  400eab:	0f 1f 44 00 00       	nopl   0x0(%rax,%rax,1)

0000000000400eb0 <_dl_relocate_static_pie>:
  400eb0:	f3 c3                	repz retq 
  400eb2:	66 2e 0f 1f 84 00 00 	nopw   %cs:0x0(%rax,%rax,1)
  400eb9:	00 00 00 
  400ebc:	0f 1f 40 00          	nopl   0x0(%rax)

0000000000400ec0 <deregister_tm_clones>:
  400ec0:	55                   	push   %rbp
  400ec1:	b8 90 54 60 00       	mov    $0x605490,%eax
  400ec6:	48 3d 90 54 60 00    	cmp    $0x605490,%rax
  400ecc:	48 89 e5             	mov    %rsp,%rbp
  400ecf:	74 17                	je     400ee8 <deregister_tm_clones+0x28>
  400ed1:	b8 00 00 00 00       	mov    $0x0,%eax
  400ed6:	48 85 c0             	test   %rax,%rax
  400ed9:	74 0d                	je     400ee8 <deregister_tm_clones+0x28>
  400edb:	5d                   	pop    %rbp
  400edc:	bf 90 54 60 00       	mov    $0x605490,%edi
  400ee1:	ff e0                	jmpq   *%rax
  400ee3:	0f 1f 44 00 00       	nopl   0x0(%rax,%rax,1)
  400ee8:	5d                   	pop    %rbp
  400ee9:	c3                   	retq   
  400eea:	66 0f 1f 44 00 00    	nopw   0x0(%rax,%rax,1)

0000000000400ef0 <register_tm_clones>:
  400ef0:	be 90 54 60 00       	mov    $0x605490,%esi
  400ef5:	55                   	push   %rbp
  400ef6:	48 81 ee 90 54 60 00 	sub    $0x605490,%rsi
  400efd:	48 89 e5             	mov    %rsp,%rbp
  400f00:	48 c1 fe 03          	sar    $0x3,%rsi
  400f04:	48 89 f0             	mov    %rsi,%rax
  400f07:	48 c1 e8 3f          	shr    $0x3f,%rax
  400f0b:	48 01 c6             	add    %rax,%rsi
  400f0e:	48 d1 fe             	sar    %rsi
  400f11:	74 15                	je     400f28 <register_tm_clones+0x38>
  400f13:	b8 00 00 00 00       	mov    $0x0,%eax
  400f18:	48 85 c0             	test   %rax,%rax
  400f1b:	74 0b                	je     400f28 <register_tm_clones+0x38>
  400f1d:	5d                   	pop    %rbp
  400f1e:	bf 90 54 60 00       	mov    $0x605490,%edi
  400f23:	ff e0                	jmpq   *%rax
  400f25:	0f 1f 00             	nopl   (%rax)
  400f28:	5d                   	pop    %rbp
  400f29:	c3                   	retq   
  400f2a:	66 0f 1f 44 00 00    	nopw   0x0(%rax,%rax,1)

0000000000400f30 <__do_global_dtors_aux>:
  400f30:	80 3d 91 45 20 00 00 	cmpb   $0x0,0x204591(%rip)        # 6054c8 <completed.7697>
  400f37:	75 17                	jne    400f50 <__do_global_dtors_aux+0x20>
  400f39:	55                   	push   %rbp
  400f3a:	48 89 e5             	mov    %rsp,%rbp
  400f3d:	e8 7e ff ff ff       	callq  400ec0 <deregister_tm_clones>
  400f42:	c6 05 7f 45 20 00 01 	movb   $0x1,0x20457f(%rip)        # 6054c8 <completed.7697>
  400f49:	5d                   	pop    %rbp
  400f4a:	c3                   	retq   
  400f4b:	0f 1f 44 00 00       	nopl   0x0(%rax,%rax,1)
  400f50:	f3 c3                	repz retq 
  400f52:	0f 1f 40 00          	nopl   0x0(%rax)
  400f56:	66 2e 0f 1f 84 00 00 	nopw   %cs:0x0(%rax,%rax,1)
  400f5d:	00 00 00 

0000000000400f60 <frame_dummy>:
  400f60:	55                   	push   %rbp
  400f61:	48 89 e5             	mov    %rsp,%rbp
  400f64:	5d                   	pop    %rbp
  400f65:	eb 89                	jmp    400ef0 <register_tm_clones>

0000000000400f67 <usage>:
  400f67:	48 83 ec 08          	sub    $0x8,%rsp
  400f6b:	48 89 fa             	mov    %rdi,%rdx
  400f6e:	83 3d 93 45 20 00 00 	cmpl   $0x0,0x204593(%rip)        # 605508 <is_checker>
  400f75:	74 46                	je     400fbd <usage+0x56>
  400f77:	be 28 30 40 00       	mov    $0x403028,%esi
  400f7c:	bf 01 00 00 00       	mov    $0x1,%edi
  400f81:	b8 00 00 00 00       	mov    $0x0,%eax
  400f86:	e8 55 fe ff ff       	callq  400de0 <__printf_chk@plt>
  400f8b:	bf 60 30 40 00       	mov    $0x403060,%edi
  400f90:	e8 2b fd ff ff       	callq  400cc0 <puts@plt>
  400f95:	bf d8 31 40 00       	mov    $0x4031d8,%edi
  400f9a:	e8 21 fd ff ff       	callq  400cc0 <puts@plt>
  400f9f:	bf 88 30 40 00       	mov    $0x403088,%edi
  400fa4:	e8 17 fd ff ff       	callq  400cc0 <puts@plt>
  400fa9:	bf f2 31 40 00       	mov    $0x4031f2,%edi
  400fae:	e8 0d fd ff ff       	callq  400cc0 <puts@plt>
  400fb3:	bf 00 00 00 00       	mov    $0x0,%edi
  400fb8:	e8 73 fe ff ff       	callq  400e30 <exit@plt>
  400fbd:	be 0e 32 40 00       	mov    $0x40320e,%esi
  400fc2:	bf 01 00 00 00       	mov    $0x1,%edi
  400fc7:	b8 00 00 00 00       	mov    $0x0,%eax
  400fcc:	e8 0f fe ff ff       	callq  400de0 <__printf_chk@plt>
  400fd1:	bf b0 30 40 00       	mov    $0x4030b0,%edi
  400fd6:	e8 e5 fc ff ff       	callq  400cc0 <puts@plt>
  400fdb:	bf d8 30 40 00       	mov    $0x4030d8,%edi
  400fe0:	e8 db fc ff ff       	callq  400cc0 <puts@plt>
  400fe5:	bf 2c 32 40 00       	mov    $0x40322c,%edi
  400fea:	e8 d1 fc ff ff       	callq  400cc0 <puts@plt>
  400fef:	eb c2                	jmp    400fb3 <usage+0x4c>

0000000000400ff1 <initialize_target>:
  400ff1:	55                   	push   %rbp
  400ff2:	53                   	push   %rbx
  400ff3:	48 81 ec 18 21 00 00 	sub    $0x2118,%rsp
  400ffa:	89 f5                	mov    %esi,%ebp
  400ffc:	64 48 8b 04 25 28 00 	mov    %fs:0x28,%rax
  401003:	00 00 
  401005:	48 89 84 24 08 21 00 	mov    %rax,0x2108(%rsp)
  40100c:	00 
  40100d:	31 c0                	xor    %eax,%eax
  40100f:	89 3d e3 44 20 00    	mov    %edi,0x2044e3(%rip)        # 6054f8 <check_level>
  401015:	8b 3d 2d 41 20 00    	mov    0x20412d(%rip),%edi        # 605148 <target_id>
  40101b:	e8 5d 1f 00 00       	callq  402f7d <gencookie>
  401020:	89 05 de 44 20 00    	mov    %eax,0x2044de(%rip)        # 605504 <cookie>
  401026:	89 c7                	mov    %eax,%edi
  401028:	e8 50 1f 00 00       	callq  402f7d <gencookie>
  40102d:	89 05 cd 44 20 00    	mov    %eax,0x2044cd(%rip)        # 605500 <authkey>
  401033:	8b 05 0f 41 20 00    	mov    0x20410f(%rip),%eax        # 605148 <target_id>
  401039:	8d 78 01             	lea    0x1(%rax),%edi
  40103c:	e8 4f fc ff ff       	callq  400c90 <srandom@plt>
  401041:	e8 5a fd ff ff       	callq  400da0 <random@plt>
  401046:	89 c7                	mov    %eax,%edi
  401048:	e8 f2 02 00 00       	callq  40133f <scramble>
  40104d:	89 c3                	mov    %eax,%ebx
  40104f:	85 ed                	test   %ebp,%ebp
  401051:	75 54                	jne    4010a7 <initialize_target+0xb6>
  401053:	b8 00 00 00 00       	mov    $0x0,%eax
  401058:	01 d8                	add    %ebx,%eax
  40105a:	0f b7 c0             	movzwl %ax,%eax
  40105d:	8d 04 c5 00 01 00 00 	lea    0x100(,%rax,8),%eax
  401064:	89 c0                	mov    %eax,%eax
  401066:	48 89 05 13 44 20 00 	mov    %rax,0x204413(%rip)        # 605480 <buf_offset>
  40106d:	c6 05 b4 50 20 00 72 	movb   $0x72,0x2050b4(%rip)        # 606128 <target_prefix>
  401074:	83 3d 0d 44 20 00 00 	cmpl   $0x0,0x20440d(%rip)        # 605488 <notify>
  40107b:	74 09                	je     401086 <initialize_target+0x95>
  40107d:	83 3d 84 44 20 00 00 	cmpl   $0x0,0x204484(%rip)        # 605508 <is_checker>
  401084:	74 39                	je     4010bf <initialize_target+0xce>
  401086:	48 8b 84 24 08 21 00 	mov    0x2108(%rsp),%rax
  40108d:	00 
  40108e:	64 48 33 04 25 28 00 	xor    %fs:0x28,%rax
  401095:	00 00 
  401097:	0f 85 d1 00 00 00    	jne    40116e <initialize_target+0x17d>
  40109d:	48 81 c4 18 21 00 00 	add    $0x2118,%rsp
  4010a4:	5b                   	pop    %rbx
  4010a5:	5d                   	pop    %rbp
  4010a6:	c3                   	retq   
  4010a7:	bf 00 00 00 00       	mov    $0x0,%edi
  4010ac:	e8 df fc ff ff       	callq  400d90 <time@plt>
  4010b1:	89 c7                	mov    %eax,%edi
  4010b3:	e8 d8 fb ff ff       	callq  400c90 <srandom@plt>
  4010b8:	e8 e3 fc ff ff       	callq  400da0 <random@plt>
  4010bd:	eb 99                	jmp    401058 <initialize_target+0x67>
  4010bf:	be 00 01 00 00       	mov    $0x100,%esi
  4010c4:	48 89 e7             	mov    %rsp,%rdi
  4010c7:	e8 54 fd ff ff       	callq  400e20 <gethostname@plt>
  4010cc:	89 c5                	mov    %eax,%ebp
  4010ce:	85 c0                	test   %eax,%eax
  4010d0:	75 23                	jne    4010f5 <initialize_target+0x104>
  4010d2:	89 c3                	mov    %eax,%ebx
  4010d4:	48 63 c3             	movslq %ebx,%rax
  4010d7:	48 8b 3c c5 60 51 60 	mov    0x605160(,%rax,8),%rdi
  4010de:	00 
  4010df:	48 85 ff             	test   %rdi,%rdi
  4010e2:	74 2a                	je     40110e <initialize_target+0x11d>
  4010e4:	48 89 e6             	mov    %rsp,%rsi
  4010e7:	e8 84 fb ff ff       	callq  400c70 <strcasecmp@plt>
  4010ec:	85 c0                	test   %eax,%eax
  4010ee:	74 19                	je     401109 <initialize_target+0x118>
  4010f0:	83 c3 01             	add    $0x1,%ebx
  4010f3:	eb df                	jmp    4010d4 <initialize_target+0xe3>
  4010f5:	bf 08 31 40 00       	mov    $0x403108,%edi
  4010fa:	e8 c1 fb ff ff       	callq  400cc0 <puts@plt>
  4010ff:	bf 08 00 00 00       	mov    $0x8,%edi
  401104:	e8 27 fd ff ff       	callq  400e30 <exit@plt>
  401109:	bd 01 00 00 00       	mov    $0x1,%ebp
  40110e:	85 ed                	test   %ebp,%ebp
  401110:	74 3b                	je     40114d <initialize_target+0x15c>
  401112:	48 8d bc 24 00 01 00 	lea    0x100(%rsp),%rdi
  401119:	00 
  40111a:	e8 b3 1b 00 00       	callq  402cd2 <init_driver>
  40111f:	85 c0                	test   %eax,%eax
  401121:	0f 89 5f ff ff ff    	jns    401086 <initialize_target+0x95>
  401127:	48 8d 94 24 00 01 00 	lea    0x100(%rsp),%rdx
  40112e:	00 
  40112f:	be 80 31 40 00       	mov    $0x403180,%esi
  401134:	bf 01 00 00 00       	mov    $0x1,%edi
  401139:	b8 00 00 00 00       	mov    $0x0,%eax
  40113e:	e8 9d fc ff ff       	callq  400de0 <__printf_chk@plt>
  401143:	bf 08 00 00 00       	mov    $0x8,%edi
  401148:	e8 e3 fc ff ff       	callq  400e30 <exit@plt>
  40114d:	48 89 e2             	mov    %rsp,%rdx
  401150:	be 40 31 40 00       	mov    $0x403140,%esi
  401155:	bf 01 00 00 00       	mov    $0x1,%edi
  40115a:	b8 00 00 00 00       	mov    $0x0,%eax
  40115f:	e8 7c fc ff ff       	callq  400de0 <__printf_chk@plt>
  401164:	bf 08 00 00 00       	mov    $0x8,%edi
  401169:	e8 c2 fc ff ff       	callq  400e30 <exit@plt>
  40116e:	e8 6d fb ff ff       	callq  400ce0 <__stack_chk_fail@plt>

0000000000401173 <main>:
  401173:	41 56                	push   %r14
  401175:	41 55                	push   %r13
  401177:	41 54                	push   %r12
  401179:	55                   	push   %rbp
  40117a:	53                   	push   %rbx
  40117b:	41 89 fc             	mov    %edi,%r12d
  40117e:	48 89 f3             	mov    %rsi,%rbx
  401181:	be 0f 20 40 00       	mov    $0x40200f,%esi
  401186:	bf 0b 00 00 00       	mov    $0xb,%edi
  40118b:	e8 b0 fb ff ff       	callq  400d40 <signal@plt>
  401190:	be c1 1f 40 00       	mov    $0x401fc1,%esi
  401195:	bf 07 00 00 00       	mov    $0x7,%edi
  40119a:	e8 a1 fb ff ff       	callq  400d40 <signal@plt>
  40119f:	be 5d 20 40 00       	mov    $0x40205d,%esi
  4011a4:	bf 04 00 00 00       	mov    $0x4,%edi
  4011a9:	e8 92 fb ff ff       	callq  400d40 <signal@plt>
  4011ae:	83 3d 53 43 20 00 00 	cmpl   $0x0,0x204353(%rip)        # 605508 <is_checker>
  4011b5:	75 24                	jne    4011db <main+0x68>
  4011b7:	bd 45 32 40 00       	mov    $0x403245,%ebp
  4011bc:	48 8b 05 dd 42 20 00 	mov    0x2042dd(%rip),%rax        # 6054a0 <stdin@@GLIBC_2.2.5>
  4011c3:	48 89 05 26 43 20 00 	mov    %rax,0x204326(%rip)        # 6054f0 <infile>
  4011ca:	41 bd 00 00 00 00    	mov    $0x0,%r13d
  4011d0:	41 be 00 00 00 00    	mov    $0x0,%r14d
  4011d6:	e9 85 00 00 00       	jmpq   401260 <main+0xed>
  4011db:	be ab 20 40 00       	mov    $0x4020ab,%esi
  4011e0:	bf 0e 00 00 00       	mov    $0xe,%edi
  4011e5:	e8 56 fb ff ff       	callq  400d40 <signal@plt>
  4011ea:	bf 05 00 00 00       	mov    $0x5,%edi
  4011ef:	e8 1c fb ff ff       	callq  400d10 <alarm@plt>
  4011f4:	bd 4a 32 40 00       	mov    $0x40324a,%ebp
  4011f9:	eb c1                	jmp    4011bc <main+0x49>
  4011fb:	48 8b 3b             	mov    (%rbx),%rdi
  4011fe:	e8 64 fd ff ff       	callq  400f67 <usage>
  401203:	be 2d 35 40 00       	mov    $0x40352d,%esi
  401208:	48 8b 3d 99 42 20 00 	mov    0x204299(%rip),%rdi        # 6054a8 <optarg@@GLIBC_2.2.5>
  40120f:	e8 dc fb ff ff       	callq  400df0 <fopen@plt>
  401214:	48 89 05 d5 42 20 00 	mov    %rax,0x2042d5(%rip)        # 6054f0 <infile>
  40121b:	48 85 c0             	test   %rax,%rax
  40121e:	75 40                	jne    401260 <main+0xed>
  401220:	48 8b 0d 81 42 20 00 	mov    0x204281(%rip),%rcx        # 6054a8 <optarg@@GLIBC_2.2.5>
  401227:	ba 52 32 40 00       	mov    $0x403252,%edx
  40122c:	be 01 00 00 00       	mov    $0x1,%esi
  401231:	48 8b 3d 88 42 20 00 	mov    0x204288(%rip),%rdi        # 6054c0 <stderr@@GLIBC_2.2.5>
  401238:	e8 13 fc ff ff       	callq  400e50 <__fprintf_chk@plt>
  40123d:	b8 01 00 00 00       	mov    $0x1,%eax
  401242:	e9 cc 00 00 00       	jmpq   401313 <main+0x1a0>
  401247:	ba 10 00 00 00       	mov    $0x10,%edx
  40124c:	be 00 00 00 00       	mov    $0x0,%esi
  401251:	48 8b 3d 50 42 20 00 	mov    0x204250(%rip),%rdi        # 6054a8 <optarg@@GLIBC_2.2.5>
  401258:	e8 b3 fb ff ff       	callq  400e10 <strtoul@plt>
  40125d:	41 89 c6             	mov    %eax,%r14d
  401260:	48 89 ea             	mov    %rbp,%rdx
  401263:	48 89 de             	mov    %rbx,%rsi
  401266:	44 89 e7             	mov    %r12d,%edi
  401269:	e8 92 fb ff ff       	callq  400e00 <getopt@plt>
  40126e:	3c ff                	cmp    $0xff,%al
  401270:	74 57                	je     4012c9 <main+0x156>
  401272:	0f be d0             	movsbl %al,%edx
  401275:	83 e8 61             	sub    $0x61,%eax
  401278:	3c 10                	cmp    $0x10,%al
  40127a:	77 31                	ja     4012ad <main+0x13a>
  40127c:	0f b6 c0             	movzbl %al,%eax
  40127f:	ff 24 c5 90 32 40 00 	jmpq   *0x403290(,%rax,8)
  401286:	ba 0a 00 00 00       	mov    $0xa,%edx
  40128b:	be 00 00 00 00       	mov    $0x0,%esi
  401290:	48 8b 3d 11 42 20 00 	mov    0x204211(%rip),%rdi        # 6054a8 <optarg@@GLIBC_2.2.5>
  401297:	e8 d4 fa ff ff       	callq  400d70 <strtol@plt>
  40129c:	41 89 c5             	mov    %eax,%r13d
  40129f:	eb bf                	jmp    401260 <main+0xed>
  4012a1:	c7 05 dd 41 20 00 00 	movl   $0x0,0x2041dd(%rip)        # 605488 <notify>
  4012a8:	00 00 00 
  4012ab:	eb b3                	jmp    401260 <main+0xed>
  4012ad:	be 6f 32 40 00       	mov    $0x40326f,%esi
  4012b2:	bf 01 00 00 00       	mov    $0x1,%edi
  4012b7:	b8 00 00 00 00       	mov    $0x0,%eax
  4012bc:	e8 1f fb ff ff       	callq  400de0 <__printf_chk@plt>
  4012c1:	48 8b 3b             	mov    (%rbx),%rdi
  4012c4:	e8 9e fc ff ff       	callq  400f67 <usage>
  4012c9:	be 01 00 00 00       	mov    $0x1,%esi
  4012ce:	44 89 ef             	mov    %r13d,%edi
  4012d1:	e8 1b fd ff ff       	callq  400ff1 <initialize_target>
  4012d6:	83 3d 2b 42 20 00 00 	cmpl   $0x0,0x20422b(%rip)        # 605508 <is_checker>
  4012dd:	74 09                	je     4012e8 <main+0x175>
  4012df:	44 39 35 1a 42 20 00 	cmp    %r14d,0x20421a(%rip)        # 605500 <authkey>
  4012e6:	75 34                	jne    40131c <main+0x1a9>
  4012e8:	8b 15 16 42 20 00    	mov    0x204216(%rip),%edx        # 605504 <cookie>
  4012ee:	be 82 32 40 00       	mov    $0x403282,%esi
  4012f3:	bf 01 00 00 00       	mov    $0x1,%edi
  4012f8:	b8 00 00 00 00       	mov    $0x0,%eax
  4012fd:	e8 de fa ff ff       	callq  400de0 <__printf_chk@plt>
  401302:	48 8b 3d 77 41 20 00 	mov    0x204177(%rip),%rdi        # 605480 <buf_offset>
  401309:	e8 f0 0d 00 00       	callq  4020fe <launch>
  40130e:	b8 00 00 00 00       	mov    $0x0,%eax
  401313:	5b                   	pop    %rbx
  401314:	5d                   	pop    %rbp
  401315:	41 5c                	pop    %r12
  401317:	41 5d                	pop    %r13
  401319:	41 5e                	pop    %r14
  40131b:	c3                   	retq   
  40131c:	44 89 f2             	mov    %r14d,%edx
  40131f:	be a8 31 40 00       	mov    $0x4031a8,%esi
  401324:	bf 01 00 00 00       	mov    $0x1,%edi
  401329:	b8 00 00 00 00       	mov    $0x0,%eax
  40132e:	e8 ad fa ff ff       	callq  400de0 <__printf_chk@plt>
  401333:	b8 00 00 00 00       	mov    $0x0,%eax
  401338:	e8 0d 09 00 00       	callq  401c4a <check_fail>
  40133d:	eb a9                	jmp    4012e8 <main+0x175>

000000000040133f <scramble>:
  40133f:	48 83 ec 38          	sub    $0x38,%rsp
  401343:	64 48 8b 04 25 28 00 	mov    %fs:0x28,%rax
  40134a:	00 00 
  40134c:	48 89 44 24 28       	mov    %rax,0x28(%rsp)
  401351:	31 c0                	xor    %eax,%eax
  401353:	eb 10                	jmp    401365 <scramble+0x26>
  401355:	69 d0 dd a7 00 00    	imul   $0xa7dd,%eax,%edx
  40135b:	01 fa                	add    %edi,%edx
  40135d:	89 c1                	mov    %eax,%ecx
  40135f:	89 14 8c             	mov    %edx,(%rsp,%rcx,4)
  401362:	83 c0 01             	add    $0x1,%eax
  401365:	83 f8 09             	cmp    $0x9,%eax
  401368:	76 eb                	jbe    401355 <scramble+0x16>
  40136a:	8b 44 24 08          	mov    0x8(%rsp),%eax
  40136e:	69 c0 6a 9a 00 00    	imul   $0x9a6a,%eax,%eax
  401374:	89 44 24 08          	mov    %eax,0x8(%rsp)
  401378:	8b 44 24 08          	mov    0x8(%rsp),%eax
  40137c:	69 c0 6c 77 00 00    	imul   $0x776c,%eax,%eax
  401382:	89 44 24 08          	mov    %eax,0x8(%rsp)
  401386:	8b 44 24 24          	mov    0x24(%rsp),%eax
  40138a:	69 c0 30 9a 00 00    	imul   $0x9a30,%eax,%eax
  401390:	89 44 24 24          	mov    %eax,0x24(%rsp)
  401394:	8b 44 24 04          	mov    0x4(%rsp),%eax
  401398:	69 c0 c1 95 00 00    	imul   $0x95c1,%eax,%eax
  40139e:	89 44 24 04          	mov    %eax,0x4(%rsp)
  4013a2:	8b 44 24 20          	mov    0x20(%rsp),%eax
  4013a6:	69 c0 62 a0 00 00    	imul   $0xa062,%eax,%eax
  4013ac:	89 44 24 20          	mov    %eax,0x20(%rsp)
  4013b0:	8b 44 24 20          	mov    0x20(%rsp),%eax
  4013b4:	69 c0 04 73 00 00    	imul   $0x7304,%eax,%eax
  4013ba:	89 44 24 20          	mov    %eax,0x20(%rsp)
  4013be:	8b 04 24             	mov    (%rsp),%eax
  4013c1:	69 c0 1a b6 00 00    	imul   $0xb61a,%eax,%eax
  4013c7:	89 04 24             	mov    %eax,(%rsp)
  4013ca:	8b 44 24 18          	mov    0x18(%rsp),%eax
  4013ce:	69 c0 1c 86 00 00    	imul   $0x861c,%eax,%eax
  4013d4:	89 44 24 18          	mov    %eax,0x18(%rsp)
  4013d8:	8b 44 24 18          	mov    0x18(%rsp),%eax
  4013dc:	69 c0 24 66 00 00    	imul   $0x6624,%eax,%eax
  4013e2:	89 44 24 18          	mov    %eax,0x18(%rsp)
  4013e6:	8b 44 24 14          	mov    0x14(%rsp),%eax
  4013ea:	69 c0 ce cd 00 00    	imul   $0xcdce,%eax,%eax
  4013f0:	89 44 24 14          	mov    %eax,0x14(%rsp)
  4013f4:	8b 44 24 0c          	mov    0xc(%rsp),%eax
  4013f8:	69 c0 cf d6 00 00    	imul   $0xd6cf,%eax,%eax
  4013fe:	89 44 24 0c          	mov    %eax,0xc(%rsp)
  401402:	8b 04 24             	mov    (%rsp),%eax
  401405:	69 c0 63 f1 00 00    	imul   $0xf163,%eax,%eax
  40140b:	89 04 24             	mov    %eax,(%rsp)
  40140e:	8b 44 24 0c          	mov    0xc(%rsp),%eax
  401412:	69 c0 4f f1 00 00    	imul   $0xf14f,%eax,%eax
  401418:	89 44 24 0c          	mov    %eax,0xc(%rsp)
  40141c:	8b 44 24 1c          	mov    0x1c(%rsp),%eax
  401420:	69 c0 14 dc 00 00    	imul   $0xdc14,%eax,%eax
  401426:	89 44 24 1c          	mov    %eax,0x1c(%rsp)
  40142a:	8b 44 24 1c          	mov    0x1c(%rsp),%eax
  40142e:	69 c0 62 6a 00 00    	imul   $0x6a62,%eax,%eax
  401434:	89 44 24 1c          	mov    %eax,0x1c(%rsp)
  401438:	8b 44 24 20          	mov    0x20(%rsp),%eax
  40143c:	69 c0 0c d5 00 00    	imul   $0xd50c,%eax,%eax
  401442:	89 44 24 20          	mov    %eax,0x20(%rsp)
  401446:	8b 44 24 04          	mov    0x4(%rsp),%eax
  40144a:	69 c0 37 29 00 00    	imul   $0x2937,%eax,%eax
  401450:	89 44 24 04          	mov    %eax,0x4(%rsp)
  401454:	8b 44 24 04          	mov    0x4(%rsp),%eax
  401458:	69 c0 bc d0 00 00    	imul   $0xd0bc,%eax,%eax
  40145e:	89 44 24 04          	mov    %eax,0x4(%rsp)
  401462:	8b 44 24 14          	mov    0x14(%rsp),%eax
  401466:	69 c0 12 49 00 00    	imul   $0x4912,%eax,%eax
  40146c:	89 44 24 14          	mov    %eax,0x14(%rsp)
  401470:	8b 44 24 1c          	mov    0x1c(%rsp),%eax
  401474:	69 c0 95 6a 00 00    	imul   $0x6a95,%eax,%eax
  40147a:	89 44 24 1c          	mov    %eax,0x1c(%rsp)
  40147e:	8b 44 24 14          	mov    0x14(%rsp),%eax
  401482:	69 c0 7d 23 00 00    	imul   $0x237d,%eax,%eax
  401488:	89 44 24 14          	mov    %eax,0x14(%rsp)
  40148c:	8b 44 24 0c          	mov    0xc(%rsp),%eax
  401490:	69 c0 13 c1 00 00    	imul   $0xc113,%eax,%eax
  401496:	89 44 24 0c          	mov    %eax,0xc(%rsp)
  40149a:	8b 44 24 1c          	mov    0x1c(%rsp),%eax
  40149e:	69 c0 7d f6 00 00    	imul   $0xf67d,%eax,%eax
  4014a4:	89 44 24 1c          	mov    %eax,0x1c(%rsp)
  4014a8:	8b 44 24 14          	mov    0x14(%rsp),%eax
  4014ac:	69 c0 71 bc 00 00    	imul   $0xbc71,%eax,%eax
  4014b2:	89 44 24 14          	mov    %eax,0x14(%rsp)
  4014b6:	8b 44 24 14          	mov    0x14(%rsp),%eax
  4014ba:	69 c0 9d d8 00 00    	imul   $0xd89d,%eax,%eax
  4014c0:	89 44 24 14          	mov    %eax,0x14(%rsp)
  4014c4:	8b 44 24 0c          	mov    0xc(%rsp),%eax
  4014c8:	69 c0 ce 3e 00 00    	imul   $0x3ece,%eax,%eax
  4014ce:	89 44 24 0c          	mov    %eax,0xc(%rsp)
  4014d2:	8b 44 24 0c          	mov    0xc(%rsp),%eax
  4014d6:	69 c0 f4 3a 00 00    	imul   $0x3af4,%eax,%eax
  4014dc:	89 44 24 0c          	mov    %eax,0xc(%rsp)
  4014e0:	8b 44 24 0c          	mov    0xc(%rsp),%eax
  4014e4:	69 c0 d9 82 00 00    	imul   $0x82d9,%eax,%eax
  4014ea:	89 44 24 0c          	mov    %eax,0xc(%rsp)
  4014ee:	8b 44 24 24          	mov    0x24(%rsp),%eax
  4014f2:	69 c0 ab c7 00 00    	imul   $0xc7ab,%eax,%eax
  4014f8:	89 44 24 24          	mov    %eax,0x24(%rsp)
  4014fc:	8b 44 24 0c          	mov    0xc(%rsp),%eax
  401500:	69 c0 72 59 00 00    	imul   $0x5972,%eax,%eax
  401506:	89 44 24 0c          	mov    %eax,0xc(%rsp)
  40150a:	8b 44 24 1c          	mov    0x1c(%rsp),%eax
  40150e:	69 c0 1c 18 00 00    	imul   $0x181c,%eax,%eax
  401514:	89 44 24 1c          	mov    %eax,0x1c(%rsp)
  401518:	8b 44 24 20          	mov    0x20(%rsp),%eax
  40151c:	69 c0 d9 36 00 00    	imul   $0x36d9,%eax,%eax
  401522:	89 44 24 20          	mov    %eax,0x20(%rsp)
  401526:	8b 44 24 0c          	mov    0xc(%rsp),%eax
  40152a:	69 c0 f8 7a 00 00    	imul   $0x7af8,%eax,%eax
  401530:	89 44 24 0c          	mov    %eax,0xc(%rsp)
  401534:	8b 04 24             	mov    (%rsp),%eax
  401537:	69 c0 bb 04 00 00    	imul   $0x4bb,%eax,%eax
  40153d:	89 04 24             	mov    %eax,(%rsp)
  401540:	8b 44 24 10          	mov    0x10(%rsp),%eax
  401544:	69 c0 12 6e 00 00    	imul   $0x6e12,%eax,%eax
  40154a:	89 44 24 10          	mov    %eax,0x10(%rsp)
  40154e:	8b 44 24 0c          	mov    0xc(%rsp),%eax
  401552:	69 c0 7f ad 00 00    	imul   $0xad7f,%eax,%eax
  401558:	89 44 24 0c          	mov    %eax,0xc(%rsp)
  40155c:	8b 44 24 10          	mov    0x10(%rsp),%eax
  401560:	69 c0 e9 4c 00 00    	imul   $0x4ce9,%eax,%eax
  401566:	89 44 24 10          	mov    %eax,0x10(%rsp)
  40156a:	8b 44 24 20          	mov    0x20(%rsp),%eax
  40156e:	69 c0 26 6b 00 00    	imul   $0x6b26,%eax,%eax
  401574:	89 44 24 20          	mov    %eax,0x20(%rsp)
  401578:	8b 44 24 24          	mov    0x24(%rsp),%eax
  40157c:	69 c0 c1 b5 00 00    	imul   $0xb5c1,%eax,%eax
  401582:	89 44 24 24          	mov    %eax,0x24(%rsp)
  401586:	8b 44 24 1c          	mov    0x1c(%rsp),%eax
  40158a:	69 c0 07 a0 00 00    	imul   $0xa007,%eax,%eax
  401590:	89 44 24 1c          	mov    %eax,0x1c(%rsp)
  401594:	8b 44 24 18          	mov    0x18(%rsp),%eax
  401598:	69 c0 d6 b1 00 00    	imul   $0xb1d6,%eax,%eax
  40159e:	89 44 24 18          	mov    %eax,0x18(%rsp)
  4015a2:	8b 44 24 10          	mov    0x10(%rsp),%eax
  4015a6:	69 c0 cc 3d 00 00    	imul   $0x3dcc,%eax,%eax
  4015ac:	89 44 24 10          	mov    %eax,0x10(%rsp)
  4015b0:	8b 44 24 24          	mov    0x24(%rsp),%eax
  4015b4:	69 c0 07 0f 00 00    	imul   $0xf07,%eax,%eax
  4015ba:	89 44 24 24          	mov    %eax,0x24(%rsp)
  4015be:	8b 44 24 20          	mov    0x20(%rsp),%eax
  4015c2:	69 c0 0e 19 00 00    	imul   $0x190e,%eax,%eax
  4015c8:	89 44 24 20          	mov    %eax,0x20(%rsp)
  4015cc:	8b 44 24 08          	mov    0x8(%rsp),%eax
  4015d0:	69 c0 92 1f 00 00    	imul   $0x1f92,%eax,%eax
  4015d6:	89 44 24 08          	mov    %eax,0x8(%rsp)
  4015da:	8b 44 24 18          	mov    0x18(%rsp),%eax
  4015de:	69 c0 bf 08 00 00    	imul   $0x8bf,%eax,%eax
  4015e4:	89 44 24 18          	mov    %eax,0x18(%rsp)
  4015e8:	8b 44 24 18          	mov    0x18(%rsp),%eax
  4015ec:	69 c0 ff a0 00 00    	imul   $0xa0ff,%eax,%eax
  4015f2:	89 44 24 18          	mov    %eax,0x18(%rsp)
  4015f6:	8b 44 24 24          	mov    0x24(%rsp),%eax
  4015fa:	69 c0 02 79 00 00    	imul   $0x7902,%eax,%eax
  401600:	89 44 24 24          	mov    %eax,0x24(%rsp)
  401604:	8b 44 24 18          	mov    0x18(%rsp),%eax
  401608:	69 c0 2d 47 00 00    	imul   $0x472d,%eax,%eax
  40160e:	89 44 24 18          	mov    %eax,0x18(%rsp)
  401612:	8b 44 24 04          	mov    0x4(%rsp),%eax
  401616:	69 c0 02 e0 00 00    	imul   $0xe002,%eax,%eax
  40161c:	89 44 24 04          	mov    %eax,0x4(%rsp)
  401620:	8b 44 24 24          	mov    0x24(%rsp),%eax
  401624:	69 c0 0e ed 00 00    	imul   $0xed0e,%eax,%eax
  40162a:	89 44 24 24          	mov    %eax,0x24(%rsp)
  40162e:	8b 44 24 08          	mov    0x8(%rsp),%eax
  401632:	69 c0 ce 46 00 00    	imul   $0x46ce,%eax,%eax
  401638:	89 44 24 08          	mov    %eax,0x8(%rsp)
  40163c:	8b 44 24 10          	mov    0x10(%rsp),%eax
  401640:	69 c0 14 fc 00 00    	imul   $0xfc14,%eax,%eax
  401646:	89 44 24 10          	mov    %eax,0x10(%rsp)
  40164a:	8b 44 24 24          	mov    0x24(%rsp),%eax
  40164e:	69 c0 5e 7d 00 00    	imul   $0x7d5e,%eax,%eax
  401654:	89 44 24 24          	mov    %eax,0x24(%rsp)
  401658:	8b 44 24 20          	mov    0x20(%rsp),%eax
  40165c:	69 c0 8b d9 00 00    	imul   $0xd98b,%eax,%eax
  401662:	89 44 24 20          	mov    %eax,0x20(%rsp)
  401666:	8b 44 24 1c          	mov    0x1c(%rsp),%eax
  40166a:	69 c0 34 40 00 00    	imul   $0x4034,%eax,%eax
  401670:	89 44 24 1c          	mov    %eax,0x1c(%rsp)
  401674:	8b 04 24             	mov    (%rsp),%eax
  401677:	69 c0 3c fc 00 00    	imul   $0xfc3c,%eax,%eax
  40167d:	89 04 24             	mov    %eax,(%rsp)
  401680:	8b 44 24 1c          	mov    0x1c(%rsp),%eax
  401684:	69 c0 2c 78 00 00    	imul   $0x782c,%eax,%eax
  40168a:	89 44 24 1c          	mov    %eax,0x1c(%rsp)
  40168e:	8b 44 24 08          	mov    0x8(%rsp),%eax
  401692:	69 c0 a5 3e 00 00    	imul   $0x3ea5,%eax,%eax
  401698:	89 44 24 08          	mov    %eax,0x8(%rsp)
  40169c:	8b 44 24 1c          	mov    0x1c(%rsp),%eax
  4016a0:	69 c0 f6 e1 00 00    	imul   $0xe1f6,%eax,%eax
  4016a6:	89 44 24 1c          	mov    %eax,0x1c(%rsp)
  4016aa:	8b 44 24 04          	mov    0x4(%rsp),%eax
  4016ae:	69 c0 ba 03 00 00    	imul   $0x3ba,%eax,%eax
  4016b4:	89 44 24 04          	mov    %eax,0x4(%rsp)
  4016b8:	8b 44 24 18          	mov    0x18(%rsp),%eax
  4016bc:	69 c0 e6 95 00 00    	imul   $0x95e6,%eax,%eax
  4016c2:	89 44 24 18          	mov    %eax,0x18(%rsp)
  4016c6:	8b 04 24             	mov    (%rsp),%eax
  4016c9:	69 c0 4e 2a 00 00    	imul   $0x2a4e,%eax,%eax
  4016cf:	89 04 24             	mov    %eax,(%rsp)
  4016d2:	8b 44 24 04          	mov    0x4(%rsp),%eax
  4016d6:	69 c0 b1 c0 00 00    	imul   $0xc0b1,%eax,%eax
  4016dc:	89 44 24 04          	mov    %eax,0x4(%rsp)
  4016e0:	8b 44 24 1c          	mov    0x1c(%rsp),%eax
  4016e4:	69 c0 a6 8c 00 00    	imul   $0x8ca6,%eax,%eax
  4016ea:	89 44 24 1c          	mov    %eax,0x1c(%rsp)
  4016ee:	8b 44 24 1c          	mov    0x1c(%rsp),%eax
  4016f2:	69 c0 bb 26 00 00    	imul   $0x26bb,%eax,%eax
  4016f8:	89 44 24 1c          	mov    %eax,0x1c(%rsp)
  4016fc:	8b 44 24 04          	mov    0x4(%rsp),%eax
  401700:	69 c0 35 2e 00 00    	imul   $0x2e35,%eax,%eax
  401706:	89 44 24 04          	mov    %eax,0x4(%rsp)
  40170a:	8b 44 24 14          	mov    0x14(%rsp),%eax
  40170e:	69 c0 ad b3 00 00    	imul   $0xb3ad,%eax,%eax
  401714:	89 44 24 14          	mov    %eax,0x14(%rsp)
  401718:	8b 44 24 0c          	mov    0xc(%rsp),%eax
  40171c:	69 c0 7e 1f 00 00    	imul   $0x1f7e,%eax,%eax
  401722:	89 44 24 0c          	mov    %eax,0xc(%rsp)
  401726:	8b 44 24 04          	mov    0x4(%rsp),%eax
  40172a:	69 c0 1e dc 00 00    	imul   $0xdc1e,%eax,%eax
  401730:	89 44 24 04          	mov    %eax,0x4(%rsp)
  401734:	8b 44 24 0c          	mov    0xc(%rsp),%eax
  401738:	69 c0 71 4e 00 00    	imul   $0x4e71,%eax,%eax
  40173e:	89 44 24 0c          	mov    %eax,0xc(%rsp)
  401742:	8b 44 24 1c          	mov    0x1c(%rsp),%eax
  401746:	69 c0 6b 84 00 00    	imul   $0x846b,%eax,%eax
  40174c:	89 44 24 1c          	mov    %eax,0x1c(%rsp)
  401750:	8b 44 24 14          	mov    0x14(%rsp),%eax
  401754:	69 c0 53 9a 00 00    	imul   $0x9a53,%eax,%eax
  40175a:	89 44 24 14          	mov    %eax,0x14(%rsp)
  40175e:	8b 44 24 14          	mov    0x14(%rsp),%eax
  401762:	69 c0 f1 55 00 00    	imul   $0x55f1,%eax,%eax
  401768:	89 44 24 14          	mov    %eax,0x14(%rsp)
  40176c:	8b 44 24 0c          	mov    0xc(%rsp),%eax
  401770:	69 c0 d1 8d 00 00    	imul   $0x8dd1,%eax,%eax
  401776:	89 44 24 0c          	mov    %eax,0xc(%rsp)
  40177a:	8b 44 24 0c          	mov    0xc(%rsp),%eax
  40177e:	69 c0 30 37 00 00    	imul   $0x3730,%eax,%eax
  401784:	89 44 24 0c          	mov    %eax,0xc(%rsp)
  401788:	8b 04 24             	mov    (%rsp),%eax
  40178b:	69 c0 9c 22 00 00    	imul   $0x229c,%eax,%eax
  401791:	89 04 24             	mov    %eax,(%rsp)
  401794:	8b 44 24 10          	mov    0x10(%rsp),%eax
  401798:	69 c0 45 36 00 00    	imul   $0x3645,%eax,%eax
  40179e:	89 44 24 10          	mov    %eax,0x10(%rsp)
  4017a2:	8b 44 24 14          	mov    0x14(%rsp),%eax
  4017a6:	69 c0 ff db 00 00    	imul   $0xdbff,%eax,%eax
  4017ac:	89 44 24 14          	mov    %eax,0x14(%rsp)
  4017b0:	8b 44 24 1c          	mov    0x1c(%rsp),%eax
  4017b4:	69 c0 66 be 00 00    	imul   $0xbe66,%eax,%eax
  4017ba:	89 44 24 1c          	mov    %eax,0x1c(%rsp)
  4017be:	8b 44 24 14          	mov    0x14(%rsp),%eax
  4017c2:	69 c0 aa 97 00 00    	imul   $0x97aa,%eax,%eax
  4017c8:	89 44 24 14          	mov    %eax,0x14(%rsp)
  4017cc:	8b 44 24 0c          	mov    0xc(%rsp),%eax
  4017d0:	69 c0 5a e2 00 00    	imul   $0xe25a,%eax,%eax
  4017d6:	89 44 24 0c          	mov    %eax,0xc(%rsp)
  4017da:	8b 44 24 24          	mov    0x24(%rsp),%eax
  4017de:	69 c0 aa 52 00 00    	imul   $0x52aa,%eax,%eax
  4017e4:	89 44 24 24          	mov    %eax,0x24(%rsp)
  4017e8:	8b 44 24 18          	mov    0x18(%rsp),%eax
  4017ec:	69 c0 28 f0 00 00    	imul   $0xf028,%eax,%eax
  4017f2:	89 44 24 18          	mov    %eax,0x18(%rsp)
  4017f6:	8b 44 24 14          	mov    0x14(%rsp),%eax
  4017fa:	69 c0 13 c7 00 00    	imul   $0xc713,%eax,%eax
  401800:	89 44 24 14          	mov    %eax,0x14(%rsp)
  401804:	8b 44 24 18          	mov    0x18(%rsp),%eax
  401808:	69 c0 32 6b 00 00    	imul   $0x6b32,%eax,%eax
  40180e:	89 44 24 18          	mov    %eax,0x18(%rsp)
  401812:	8b 44 24 04          	mov    0x4(%rsp),%eax
  401816:	69 c0 9a e8 00 00    	imul   $0xe89a,%eax,%eax
  40181c:	89 44 24 04          	mov    %eax,0x4(%rsp)
  401820:	8b 44 24 14          	mov    0x14(%rsp),%eax
  401824:	69 c0 32 60 00 00    	imul   $0x6032,%eax,%eax
  40182a:	89 44 24 14          	mov    %eax,0x14(%rsp)
  40182e:	8b 44 24 04          	mov    0x4(%rsp),%eax
  401832:	69 c0 34 ec 00 00    	imul   $0xec34,%eax,%eax
  401838:	89 44 24 04          	mov    %eax,0x4(%rsp)
  40183c:	8b 44 24 14          	mov    0x14(%rsp),%eax
  401840:	69 c0 e6 5b 00 00    	imul   $0x5be6,%eax,%eax
  401846:	89 44 24 14          	mov    %eax,0x14(%rsp)
  40184a:	8b 44 24 1c          	mov    0x1c(%rsp),%eax
  40184e:	69 c0 0a ee 00 00    	imul   $0xee0a,%eax,%eax
  401854:	89 44 24 1c          	mov    %eax,0x1c(%rsp)
  401858:	8b 04 24             	mov    (%rsp),%eax
  40185b:	69 c0 90 0b 00 00    	imul   $0xb90,%eax,%eax
  401861:	89 04 24             	mov    %eax,(%rsp)
  401864:	8b 04 24             	mov    (%rsp),%eax
  401867:	69 c0 2d 60 00 00    	imul   $0x602d,%eax,%eax
  40186d:	89 04 24             	mov    %eax,(%rsp)
  401870:	8b 44 24 20          	mov    0x20(%rsp),%eax
  401874:	69 c0 91 5d 00 00    	imul   $0x5d91,%eax,%eax
  40187a:	89 44 24 20          	mov    %eax,0x20(%rsp)
  40187e:	8b 44 24 14          	mov    0x14(%rsp),%eax
  401882:	69 c0 cd 38 00 00    	imul   $0x38cd,%eax,%eax
  401888:	89 44 24 14          	mov    %eax,0x14(%rsp)
  40188c:	8b 44 24 04          	mov    0x4(%rsp),%eax
  401890:	69 c0 d2 a4 00 00    	imul   $0xa4d2,%eax,%eax
  401896:	89 44 24 04          	mov    %eax,0x4(%rsp)
  40189a:	ba 00 00 00 00       	mov    $0x0,%edx
  40189f:	b8 00 00 00 00       	mov    $0x0,%eax
  4018a4:	eb 0a                	jmp    4018b0 <scramble+0x571>
  4018a6:	89 d1                	mov    %edx,%ecx
  4018a8:	8b 0c 8c             	mov    (%rsp,%rcx,4),%ecx
  4018ab:	01 c8                	add    %ecx,%eax
  4018ad:	83 c2 01             	add    $0x1,%edx
  4018b0:	83 fa 09             	cmp    $0x9,%edx
  4018b3:	76 f1                	jbe    4018a6 <scramble+0x567>
  4018b5:	48 8b 74 24 28       	mov    0x28(%rsp),%rsi
  4018ba:	64 48 33 34 25 28 00 	xor    %fs:0x28,%rsi
  4018c1:	00 00 
  4018c3:	75 05                	jne    4018ca <scramble+0x58b>
  4018c5:	48 83 c4 38          	add    $0x38,%rsp
  4018c9:	c3                   	retq   
  4018ca:	e8 11 f4 ff ff       	callq  400ce0 <__stack_chk_fail@plt>

00000000004018cf <getbuf>:
  4018cf:	48 83 ec 28          	sub    $0x28,%rsp
  4018d3:	48 89 e7             	mov    %rsp,%rdi
  4018d6:	e8 a4 03 00 00       	callq  401c7f <Gets>
  4018db:	b8 01 00 00 00       	mov    $0x1,%eax
  4018e0:	48 83 c4 28          	add    $0x28,%rsp
  4018e4:	c3                   	retq   

00000000004018e5 <touch1>:
  4018e5:	48 83 ec 08          	sub    $0x8,%rsp
  4018e9:	c7 05 09 3c 20 00 01 	movl   $0x1,0x203c09(%rip)        # 6054fc <vlevel>
  4018f0:	00 00 00 
  4018f3:	bf 7f 33 40 00       	mov    $0x40337f,%edi
  4018f8:	e8 c3 f3 ff ff       	callq  400cc0 <puts@plt>
  4018fd:	bf 01 00 00 00       	mov    $0x1,%edi
  401902:	e8 cd 05 00 00       	callq  401ed4 <validate>
  401907:	bf 00 00 00 00       	mov    $0x0,%edi
  40190c:	e8 1f f5 ff ff       	callq  400e30 <exit@plt>

0000000000401911 <touch2>:
  401911:	48 83 ec 08          	sub    $0x8,%rsp
  401915:	89 fa                	mov    %edi,%edx
  401917:	c7 05 db 3b 20 00 02 	movl   $0x2,0x203bdb(%rip)        # 6054fc <vlevel>
  40191e:	00 00 00 
  401921:	39 3d dd 3b 20 00    	cmp    %edi,0x203bdd(%rip)        # 605504 <cookie>
  401927:	74 28                	je     401951 <touch2+0x40>
  401929:	be d0 33 40 00       	mov    $0x4033d0,%esi
  40192e:	bf 01 00 00 00       	mov    $0x1,%edi
  401933:	b8 00 00 00 00       	mov    $0x0,%eax
  401938:	e8 a3 f4 ff ff       	callq  400de0 <__printf_chk@plt>
  40193d:	bf 02 00 00 00       	mov    $0x2,%edi
  401942:	e8 52 06 00 00       	callq  401f99 <fail>
  401947:	bf 00 00 00 00       	mov    $0x0,%edi
  40194c:	e8 df f4 ff ff       	callq  400e30 <exit@plt>
  401951:	be a8 33 40 00       	mov    $0x4033a8,%esi
  401956:	bf 01 00 00 00       	mov    $0x1,%edi
  40195b:	b8 00 00 00 00       	mov    $0x0,%eax
  401960:	e8 7b f4 ff ff       	callq  400de0 <__printf_chk@plt>
  401965:	bf 02 00 00 00       	mov    $0x2,%edi
  40196a:	e8 65 05 00 00       	callq  401ed4 <validate>
  40196f:	eb d6                	jmp    401947 <touch2+0x36>

0000000000401971 <hexmatch>:
  401971:	41 54                	push   %r12
  401973:	55                   	push   %rbp
  401974:	53                   	push   %rbx
  401975:	48 83 c4 80          	add    $0xffffffffffffff80,%rsp
  401979:	89 fd                	mov    %edi,%ebp
  40197b:	48 89 f3             	mov    %rsi,%rbx
  40197e:	64 48 8b 04 25 28 00 	mov    %fs:0x28,%rax
  401985:	00 00 
  401987:	48 89 44 24 78       	mov    %rax,0x78(%rsp)
  40198c:	31 c0                	xor    %eax,%eax
  40198e:	e8 0d f4 ff ff       	callq  400da0 <random@plt>
  401993:	48 89 c1             	mov    %rax,%rcx
  401996:	48 ba 0b d7 a3 70 3d 	movabs $0xa3d70a3d70a3d70b,%rdx
  40199d:	0a d7 a3 
  4019a0:	48 f7 ea             	imul   %rdx
  4019a3:	48 01 ca             	add    %rcx,%rdx
  4019a6:	48 c1 fa 06          	sar    $0x6,%rdx
  4019aa:	48 89 c8             	mov    %rcx,%rax
  4019ad:	48 c1 f8 3f          	sar    $0x3f,%rax
  4019b1:	48 29 c2             	sub    %rax,%rdx
  4019b4:	48 8d 04 92          	lea    (%rdx,%rdx,4),%rax
  4019b8:	48 8d 14 80          	lea    (%rax,%rax,4),%rdx
  4019bc:	48 8d 04 95 00 00 00 	lea    0x0(,%rdx,4),%rax
  4019c3:	00 
  4019c4:	48 29 c1             	sub    %rax,%rcx
  4019c7:	4c 8d 24 0c          	lea    (%rsp,%rcx,1),%r12
  4019cb:	41 89 e8             	mov    %ebp,%r8d
  4019ce:	b9 9c 33 40 00       	mov    $0x40339c,%ecx
  4019d3:	48 c7 c2 ff ff ff ff 	mov    $0xffffffffffffffff,%rdx
  4019da:	be 01 00 00 00       	mov    $0x1,%esi
  4019df:	4c 89 e7             	mov    %r12,%rdi
  4019e2:	b8 00 00 00 00       	mov    $0x0,%eax
  4019e7:	e8 74 f4 ff ff       	callq  400e60 <__sprintf_chk@plt>
  4019ec:	ba 09 00 00 00       	mov    $0x9,%edx
  4019f1:	4c 89 e6             	mov    %r12,%rsi
  4019f4:	48 89 df             	mov    %rbx,%rdi
  4019f7:	e8 a4 f2 ff ff       	callq  400ca0 <strncmp@plt>
  4019fc:	85 c0                	test   %eax,%eax
  4019fe:	0f 94 c0             	sete   %al
  401a01:	48 8b 5c 24 78       	mov    0x78(%rsp),%rbx
  401a06:	64 48 33 1c 25 28 00 	xor    %fs:0x28,%rbx
  401a0d:	00 00 
  401a0f:	75 0c                	jne    401a1d <hexmatch+0xac>
  401a11:	0f b6 c0             	movzbl %al,%eax
  401a14:	48 83 ec 80          	sub    $0xffffffffffffff80,%rsp
  401a18:	5b                   	pop    %rbx
  401a19:	5d                   	pop    %rbp
  401a1a:	41 5c                	pop    %r12
  401a1c:	c3                   	retq   
  401a1d:	e8 be f2 ff ff       	callq  400ce0 <__stack_chk_fail@plt>

0000000000401a22 <touch3>:
  401a22:	53                   	push   %rbx
  401a23:	48 89 fb             	mov    %rdi,%rbx
  401a26:	c7 05 cc 3a 20 00 03 	movl   $0x3,0x203acc(%rip)        # 6054fc <vlevel>
  401a2d:	00 00 00 
  401a30:	48 89 fe             	mov    %rdi,%rsi
  401a33:	8b 3d cb 3a 20 00    	mov    0x203acb(%rip),%edi        # 605504 <cookie>
  401a39:	e8 33 ff ff ff       	callq  401971 <hexmatch>
  401a3e:	85 c0                	test   %eax,%eax
  401a40:	74 2b                	je     401a6d <touch3+0x4b>
  401a42:	48 89 da             	mov    %rbx,%rdx
  401a45:	be f8 33 40 00       	mov    $0x4033f8,%esi
  401a4a:	bf 01 00 00 00       	mov    $0x1,%edi
  401a4f:	b8 00 00 00 00       	mov    $0x0,%eax
  401a54:	e8 87 f3 ff ff       	callq  400de0 <__printf_chk@plt>
  401a59:	bf 03 00 00 00       	mov    $0x3,%edi
  401a5e:	e8 71 04 00 00       	callq  401ed4 <validate>
  401a63:	bf 00 00 00 00       	mov    $0x0,%edi
  401a68:	e8 c3 f3 ff ff       	callq  400e30 <exit@plt>
  401a6d:	48 89 da             	mov    %rbx,%rdx
  401a70:	be 20 34 40 00       	mov    $0x403420,%esi
  401a75:	bf 01 00 00 00       	mov    $0x1,%edi
  401a7a:	b8 00 00 00 00       	mov    $0x0,%eax
  401a7f:	e8 5c f3 ff ff       	callq  400de0 <__printf_chk@plt>
  401a84:	bf 03 00 00 00       	mov    $0x3,%edi
  401a89:	e8 0b 05 00 00       	callq  401f99 <fail>
  401a8e:	eb d3                	jmp    401a63 <touch3+0x41>

0000000000401a90 <test>:
  401a90:	48 83 ec 08          	sub    $0x8,%rsp
  401a94:	b8 00 00 00 00       	mov    $0x0,%eax
  401a99:	e8 31 fe ff ff       	callq  4018cf <getbuf>
  401a9e:	89 c2                	mov    %eax,%edx
  401aa0:	be 48 34 40 00       	mov    $0x403448,%esi
  401aa5:	bf 01 00 00 00       	mov    $0x1,%edi
  401aaa:	b8 00 00 00 00       	mov    $0x0,%eax
  401aaf:	e8 2c f3 ff ff       	callq  400de0 <__printf_chk@plt>
  401ab4:	48 83 c4 08          	add    $0x8,%rsp
  401ab8:	c3                   	retq   

0000000000401ab9 <start_farm>:
  401ab9:	b8 01 00 00 00       	mov    $0x1,%eax
  401abe:	c3                   	retq   

0000000000401abf <getval_379>:
  401abf:	b8 1e 58 90 90       	mov    $0x9090581e,%eax
  401ac4:	c3                   	retq   

0000000000401ac5 <addval_475>:
  401ac5:	8d 87 37 48 89 c7    	lea    -0x3876b7c9(%rdi),%eax
  401acb:	c3                   	retq   

0000000000401acc <setval_431>:
  401acc:	c7 07 48 89 c7 c3    	movl   $0xc3c78948,(%rdi)
  401ad2:	c3                   	retq   

0000000000401ad3 <getval_398>:
  401ad3:	b8 48 89 c7 92       	mov    $0x92c78948,%eax
  401ad8:	c3                   	retq   

0000000000401ad9 <addval_243>:
  401ad9:	8d 87 58 90 c3 1b    	lea    0x1bc39058(%rdi),%eax
  401adf:	c3                   	retq   

0000000000401ae0 <addval_289>:
  401ae0:	8d 87 e9 58 94 90    	lea    -0x6f6ba717(%rdi),%eax
  401ae6:	c3                   	retq   

0000000000401ae7 <addval_467>:
  401ae7:	8d 87 a4 48 8d c7    	lea    -0x3872b75c(%rdi),%eax
  401aed:	c3                   	retq   

0000000000401aee <getval_372>:
  401aee:	b8 0c d8 c3 6b       	mov    $0x6bc3d80c,%eax
  401af3:	c3                   	retq   

0000000000401af4 <mid_farm>:
  401af4:	b8 01 00 00 00       	mov    $0x1,%eax
  401af9:	c3                   	retq   

0000000000401afa <add_xy>:
  401afa:	48 8d 04 37          	lea    (%rdi,%rsi,1),%rax
  401afe:	c3                   	retq   

0000000000401aff <addval_165>:
  401aff:	8d 87 48 89 e0 c2    	lea    -0x3d1f76b8(%rdi),%eax
  401b05:	c3                   	retq   

0000000000401b06 <addval_390>:
  401b06:	8d 87 82 89 c2 c3    	lea    -0x3c3d767e(%rdi),%eax
  401b0c:	c3                   	retq   

0000000000401b0d <addval_141>:
  401b0d:	8d 87 48 89 e0 90    	lea    -0x6f1f76b8(%rdi),%eax
  401b13:	c3                   	retq   

0000000000401b14 <setval_405>:
  401b14:	c7 07 8d ce 08 c0    	movl   $0xc008ce8d,(%rdi)
  401b1a:	c3                   	retq   

0000000000401b1b <setval_364>:
  401b1b:	c7 07 89 c2 94 d2    	movl   $0xd294c289,(%rdi)
  401b21:	c3                   	retq   

0000000000401b22 <getval_423>:
  401b22:	b8 2c 81 c2 c3       	mov    $0xc3c2812c,%eax
  401b27:	c3                   	retq   

0000000000401b28 <setval_124>:
  401b28:	c7 07 c8 89 e0 90    	movl   $0x90e089c8,(%rdi)
  401b2e:	c3                   	retq   

0000000000401b2f <addval_292>:
  401b2f:	8d 87 89 ce 60 d2    	lea    -0x2d9f3177(%rdi),%eax
  401b35:	c3                   	retq   

0000000000401b36 <setval_499>:
  401b36:	c7 07 89 c2 90 c3    	movl   $0xc390c289,(%rdi)
  401b3c:	c3                   	retq   

0000000000401b3d <addval_193>:
  401b3d:	8d 87 88 c2 84 c0    	lea    -0x3f7b3d78(%rdi),%eax
  401b43:	c3                   	retq   

0000000000401b44 <setval_239>:
  401b44:	c7 07 8b d1 20 d2    	movl   $0xd220d18b,(%rdi)
  401b4a:	c3                   	retq   

0000000000401b4b <setval_347>:
  401b4b:	c7 07 88 d1 c3 e3    	movl   $0xe3c3d188,(%rdi)
  401b51:	c3                   	retq   

0000000000401b52 <addval_432>:
  401b52:	8d 87 48 89 e0 c1    	lea    -0x3e1f76b8(%rdi),%eax
  401b58:	c3                   	retq   

0000000000401b59 <addval_293>:
  401b59:	8d 87 89 d1 38 c0    	lea    -0x3fc72e77(%rdi),%eax
  401b5f:	c3                   	retq   

0000000000401b60 <addval_302>:
  401b60:	8d 87 89 d1 60 c9    	lea    -0x369f2e77(%rdi),%eax
  401b66:	c3                   	retq   

0000000000401b67 <addval_376>:
  401b67:	8d 87 48 89 e0 91    	lea    -0x6e1f76b8(%rdi),%eax
  401b6d:	c3                   	retq   

0000000000401b6e <addval_286>:
  401b6e:	8d 87 7a de 89 ce    	lea    -0x31762186(%rdi),%eax
  401b74:	c3                   	retq   

0000000000401b75 <getval_403>:
  401b75:	b8 89 c2 c2 5e       	mov    $0x5ec2c289,%eax
  401b7a:	c3                   	retq   

0000000000401b7b <setval_440>:
  401b7b:	c7 07 f5 48 99 e0    	movl   $0xe09948f5,(%rdi)
  401b81:	c3                   	retq   

0000000000401b82 <setval_315>:
  401b82:	c7 07 09 ce 90 c3    	movl   $0xc390ce09,(%rdi)
  401b88:	c3                   	retq   

0000000000401b89 <setval_414>:
  401b89:	c7 07 8d ce 08 c0    	movl   $0xc008ce8d,(%rdi)
  401b8f:	c3                   	retq   

0000000000401b90 <setval_450>:
  401b90:	c7 07 8d d1 20 db    	movl   $0xdb20d18d,(%rdi)
  401b96:	c3                   	retq   

0000000000401b97 <setval_194>:
  401b97:	c7 07 89 ce 91 90    	movl   $0x9091ce89,(%rdi)
  401b9d:	c3                   	retq   

0000000000401b9e <setval_191>:
  401b9e:	c7 07 89 ce 18 db    	movl   $0xdb18ce89,(%rdi)
  401ba4:	c3                   	retq   

0000000000401ba5 <setval_131>:
  401ba5:	c7 07 89 ce 90 90    	movl   $0x9090ce89,(%rdi)
  401bab:	c3                   	retq   

0000000000401bac <getval_185>:
  401bac:	b8 89 c2 c2 52       	mov    $0x52c2c289,%eax
  401bb1:	c3                   	retq   

0000000000401bb2 <addval_336>:
  401bb2:	8d 87 89 d1 92 c3    	lea    -0x3c6d2e77(%rdi),%eax
  401bb8:	c3                   	retq   

0000000000401bb9 <getval_433>:
  401bb9:	b8 a9 48 89 e0       	mov    $0xe08948a9,%eax
  401bbe:	c3                   	retq   

0000000000401bbf <setval_455>:
  401bbf:	c7 07 89 c2 78 d2    	movl   $0xd278c289,(%rdi)
  401bc5:	c3                   	retq   

0000000000401bc6 <setval_155>:
  401bc6:	c7 07 89 d1 08 db    	movl   $0xdb08d189,(%rdi)
  401bcc:	c3                   	retq   

0000000000401bcd <getval_180>:
  401bcd:	b8 48 89 e0 c2       	mov    $0xc2e08948,%eax
  401bd2:	c3                   	retq   

0000000000401bd3 <getval_149>:
  401bd3:	b8 99 d1 08 c9       	mov    $0xc908d199,%eax
  401bd8:	c3                   	retq   

0000000000401bd9 <end_farm>:
  401bd9:	b8 01 00 00 00       	mov    $0x1,%eax
  401bde:	c3                   	retq   

0000000000401bdf <save_char>:
  401bdf:	8b 05 3f 45 20 00    	mov    0x20453f(%rip),%eax        # 606124 <gets_cnt>
  401be5:	3d ff 03 00 00       	cmp    $0x3ff,%eax
  401bea:	7f 49                	jg     401c35 <save_char+0x56>
  401bec:	89 f9                	mov    %edi,%ecx
  401bee:	c0 e9 04             	shr    $0x4,%cl
  401bf1:	8d 14 40             	lea    (%rax,%rax,2),%edx
  401bf4:	83 e1 0f             	and    $0xf,%ecx
  401bf7:	0f b6 b1 70 37 40 00 	movzbl 0x403770(%rcx),%esi
  401bfe:	48 63 ca             	movslq %edx,%rcx
  401c01:	40 88 b1 20 55 60 00 	mov    %sil,0x605520(%rcx)
  401c08:	8d 4a 01             	lea    0x1(%rdx),%ecx
  401c0b:	83 e7 0f             	and    $0xf,%edi
  401c0e:	0f b6 b7 70 37 40 00 	movzbl 0x403770(%rdi),%esi
  401c15:	48 63 c9             	movslq %ecx,%rcx
  401c18:	40 88 b1 20 55 60 00 	mov    %sil,0x605520(%rcx)
  401c1f:	83 c2 02             	add    $0x2,%edx
  401c22:	48 63 d2             	movslq %edx,%rdx
  401c25:	c6 82 20 55 60 00 20 	movb   $0x20,0x605520(%rdx)
  401c2c:	83 c0 01             	add    $0x1,%eax
  401c2f:	89 05 ef 44 20 00    	mov    %eax,0x2044ef(%rip)        # 606124 <gets_cnt>
  401c35:	f3 c3                	repz retq 

0000000000401c37 <save_term>:
  401c37:	8b 05 e7 44 20 00    	mov    0x2044e7(%rip),%eax        # 606124 <gets_cnt>
  401c3d:	8d 04 40             	lea    (%rax,%rax,2),%eax
  401c40:	48 98                	cltq   
  401c42:	c6 80 20 55 60 00 00 	movb   $0x0,0x605520(%rax)
  401c49:	c3                   	retq   

0000000000401c4a <check_fail>:
  401c4a:	48 83 ec 08          	sub    $0x8,%rsp
  401c4e:	0f be 15 d3 44 20 00 	movsbl 0x2044d3(%rip),%edx        # 606128 <target_prefix>
  401c55:	41 b8 20 55 60 00    	mov    $0x605520,%r8d
  401c5b:	8b 0d 97 38 20 00    	mov    0x203897(%rip),%ecx        # 6054f8 <check_level>
  401c61:	be 6b 34 40 00       	mov    $0x40346b,%esi
  401c66:	bf 01 00 00 00       	mov    $0x1,%edi
  401c6b:	b8 00 00 00 00       	mov    $0x0,%eax
  401c70:	e8 6b f1 ff ff       	callq  400de0 <__printf_chk@plt>
  401c75:	bf 01 00 00 00       	mov    $0x1,%edi
  401c7a:	e8 b1 f1 ff ff       	callq  400e30 <exit@plt>

0000000000401c7f <Gets>:
  401c7f:	41 54                	push   %r12
  401c81:	55                   	push   %rbp
  401c82:	53                   	push   %rbx
  401c83:	49 89 fc             	mov    %rdi,%r12
  401c86:	c7 05 94 44 20 00 00 	movl   $0x0,0x204494(%rip)        # 606124 <gets_cnt>
  401c8d:	00 00 00 
  401c90:	48 89 fb             	mov    %rdi,%rbx
  401c93:	eb 11                	jmp    401ca6 <Gets+0x27>
  401c95:	48 8d 6b 01          	lea    0x1(%rbx),%rbp
  401c99:	88 03                	mov    %al,(%rbx)
  401c9b:	0f b6 f8             	movzbl %al,%edi
  401c9e:	e8 3c ff ff ff       	callq  401bdf <save_char>
  401ca3:	48 89 eb             	mov    %rbp,%rbx
  401ca6:	48 8b 3d 43 38 20 00 	mov    0x203843(%rip),%rdi        # 6054f0 <infile>
  401cad:	e8 fe f0 ff ff       	callq  400db0 <_IO_getc@plt>
  401cb2:	83 f8 ff             	cmp    $0xffffffff,%eax
  401cb5:	74 05                	je     401cbc <Gets+0x3d>
  401cb7:	83 f8 0a             	cmp    $0xa,%eax
  401cba:	75 d9                	jne    401c95 <Gets+0x16>
  401cbc:	c6 03 00             	movb   $0x0,(%rbx)
  401cbf:	b8 00 00 00 00       	mov    $0x0,%eax
  401cc4:	e8 6e ff ff ff       	callq  401c37 <save_term>
  401cc9:	4c 89 e0             	mov    %r12,%rax
  401ccc:	5b                   	pop    %rbx
  401ccd:	5d                   	pop    %rbp
  401cce:	41 5c                	pop    %r12
  401cd0:	c3                   	retq   

0000000000401cd1 <notify_server>:
  401cd1:	55                   	push   %rbp
  401cd2:	53                   	push   %rbx
  401cd3:	48 81 ec 18 40 00 00 	sub    $0x4018,%rsp
  401cda:	64 48 8b 04 25 28 00 	mov    %fs:0x28,%rax
  401ce1:	00 00 
  401ce3:	48 89 84 24 08 40 00 	mov    %rax,0x4008(%rsp)
  401cea:	00 
  401ceb:	31 c0                	xor    %eax,%eax
  401ced:	83 3d 14 38 20 00 00 	cmpl   $0x0,0x203814(%rip)        # 605508 <is_checker>
  401cf4:	0f 85 c9 00 00 00    	jne    401dc3 <notify_server+0xf2>
  401cfa:	89 fb                	mov    %edi,%ebx
  401cfc:	8b 05 22 44 20 00    	mov    0x204422(%rip),%eax        # 606124 <gets_cnt>
  401d02:	83 c0 64             	add    $0x64,%eax
  401d05:	3d 00 20 00 00       	cmp    $0x2000,%eax
  401d0a:	0f 8f d4 00 00 00    	jg     401de4 <notify_server+0x113>
  401d10:	0f be 05 11 44 20 00 	movsbl 0x204411(%rip),%eax        # 606128 <target_prefix>
  401d17:	83 3d 6a 37 20 00 00 	cmpl   $0x0,0x20376a(%rip)        # 605488 <notify>
  401d1e:	0f 84 de 00 00 00    	je     401e02 <notify_server+0x131>
  401d24:	8b 15 d6 37 20 00    	mov    0x2037d6(%rip),%edx        # 605500 <authkey>
  401d2a:	85 db                	test   %ebx,%ebx
  401d2c:	0f 84 da 00 00 00    	je     401e0c <notify_server+0x13b>
  401d32:	bd 81 34 40 00       	mov    $0x403481,%ebp
  401d37:	68 20 55 60 00       	pushq  $0x605520
  401d3c:	56                   	push   %rsi
  401d3d:	50                   	push   %rax
  401d3e:	52                   	push   %rdx
  401d3f:	49 89 e9             	mov    %rbp,%r9
  401d42:	44 8b 05 ff 33 20 00 	mov    0x2033ff(%rip),%r8d        # 605148 <target_id>
  401d49:	b9 8b 34 40 00       	mov    $0x40348b,%ecx
  401d4e:	ba 00 20 00 00       	mov    $0x2000,%edx
  401d53:	be 01 00 00 00       	mov    $0x1,%esi
  401d58:	48 8d 7c 24 20       	lea    0x20(%rsp),%rdi
  401d5d:	b8 00 00 00 00       	mov    $0x0,%eax
  401d62:	e8 f9 f0 ff ff       	callq  400e60 <__sprintf_chk@plt>
  401d67:	48 83 c4 20          	add    $0x20,%rsp
  401d6b:	83 3d 16 37 20 00 00 	cmpl   $0x0,0x203716(%rip)        # 605488 <notify>
  401d72:	0f 84 d3 00 00 00    	je     401e4b <notify_server+0x17a>
  401d78:	85 db                	test   %ebx,%ebx
  401d7a:	0f 84 bc 00 00 00    	je     401e3c <notify_server+0x16b>
  401d80:	4c 8d 8c 24 00 20 00 	lea    0x2000(%rsp),%r9
  401d87:	00 
  401d88:	41 b8 00 00 00 00    	mov    $0x0,%r8d
  401d8e:	48 89 e1             	mov    %rsp,%rcx
  401d91:	48 8b 15 b8 33 20 00 	mov    0x2033b8(%rip),%rdx        # 605150 <lab>
  401d98:	48 8b 35 b9 33 20 00 	mov    0x2033b9(%rip),%rsi        # 605158 <course>
  401d9f:	48 8b 3d 9a 33 20 00 	mov    0x20339a(%rip),%rdi        # 605140 <user_id>
  401da6:	e8 31 11 00 00       	callq  402edc <driver_post>
  401dab:	85 c0                	test   %eax,%eax
  401dad:	78 67                	js     401e16 <notify_server+0x145>
  401daf:	bf d0 35 40 00       	mov    $0x4035d0,%edi
  401db4:	e8 07 ef ff ff       	callq  400cc0 <puts@plt>
  401db9:	bf b3 34 40 00       	mov    $0x4034b3,%edi
  401dbe:	e8 fd ee ff ff       	callq  400cc0 <puts@plt>
  401dc3:	48 8b 84 24 08 40 00 	mov    0x4008(%rsp),%rax
  401dca:	00 
  401dcb:	64 48 33 04 25 28 00 	xor    %fs:0x28,%rax
  401dd2:	00 00 
  401dd4:	0f 85 f5 00 00 00    	jne    401ecf <notify_server+0x1fe>
  401dda:	48 81 c4 18 40 00 00 	add    $0x4018,%rsp
  401de1:	5b                   	pop    %rbx
  401de2:	5d                   	pop    %rbp
  401de3:	c3                   	retq   
  401de4:	be a0 35 40 00       	mov    $0x4035a0,%esi
  401de9:	bf 01 00 00 00       	mov    $0x1,%edi
  401dee:	b8 00 00 00 00       	mov    $0x0,%eax
  401df3:	e8 e8 ef ff ff       	callq  400de0 <__printf_chk@plt>
  401df8:	bf 01 00 00 00       	mov    $0x1,%edi
  401dfd:	e8 2e f0 ff ff       	callq  400e30 <exit@plt>
  401e02:	ba ff ff ff ff       	mov    $0xffffffff,%edx
  401e07:	e9 1e ff ff ff       	jmpq   401d2a <notify_server+0x59>
  401e0c:	bd 86 34 40 00       	mov    $0x403486,%ebp
  401e11:	e9 21 ff ff ff       	jmpq   401d37 <notify_server+0x66>
  401e16:	48 8d 94 24 00 20 00 	lea    0x2000(%rsp),%rdx
  401e1d:	00 
  401e1e:	be a7 34 40 00       	mov    $0x4034a7,%esi
  401e23:	bf 01 00 00 00       	mov    $0x1,%edi
  401e28:	b8 00 00 00 00       	mov    $0x0,%eax
  401e2d:	e8 ae ef ff ff       	callq  400de0 <__printf_chk@plt>
  401e32:	bf 01 00 00 00       	mov    $0x1,%edi
  401e37:	e8 f4 ef ff ff       	callq  400e30 <exit@plt>
  401e3c:	bf bd 34 40 00       	mov    $0x4034bd,%edi
  401e41:	e8 7a ee ff ff       	callq  400cc0 <puts@plt>
  401e46:	e9 78 ff ff ff       	jmpq   401dc3 <notify_server+0xf2>
  401e4b:	48 89 ea             	mov    %rbp,%rdx
  401e4e:	be 08 36 40 00       	mov    $0x403608,%esi
  401e53:	bf 01 00 00 00       	mov    $0x1,%edi
  401e58:	b8 00 00 00 00       	mov    $0x0,%eax
  401e5d:	e8 7e ef ff ff       	callq  400de0 <__printf_chk@plt>
  401e62:	48 8b 15 d7 32 20 00 	mov    0x2032d7(%rip),%rdx        # 605140 <user_id>
  401e69:	be c4 34 40 00       	mov    $0x4034c4,%esi
  401e6e:	bf 01 00 00 00       	mov    $0x1,%edi
  401e73:	b8 00 00 00 00       	mov    $0x0,%eax
  401e78:	e8 63 ef ff ff       	callq  400de0 <__printf_chk@plt>
  401e7d:	48 8b 15 d4 32 20 00 	mov    0x2032d4(%rip),%rdx        # 605158 <course>
  401e84:	be d1 34 40 00       	mov    $0x4034d1,%esi
  401e89:	bf 01 00 00 00       	mov    $0x1,%edi
  401e8e:	b8 00 00 00 00       	mov    $0x0,%eax
  401e93:	e8 48 ef ff ff       	callq  400de0 <__printf_chk@plt>
  401e98:	48 8b 15 b1 32 20 00 	mov    0x2032b1(%rip),%rdx        # 605150 <lab>
  401e9f:	be dd 34 40 00       	mov    $0x4034dd,%esi
  401ea4:	bf 01 00 00 00       	mov    $0x1,%edi
  401ea9:	b8 00 00 00 00       	mov    $0x0,%eax
  401eae:	e8 2d ef ff ff       	callq  400de0 <__printf_chk@plt>
  401eb3:	48 89 e2             	mov    %rsp,%rdx
  401eb6:	be e6 34 40 00       	mov    $0x4034e6,%esi
  401ebb:	bf 01 00 00 00       	mov    $0x1,%edi
  401ec0:	b8 00 00 00 00       	mov    $0x0,%eax
  401ec5:	e8 16 ef ff ff       	callq  400de0 <__printf_chk@plt>
  401eca:	e9 f4 fe ff ff       	jmpq   401dc3 <notify_server+0xf2>
  401ecf:	e8 0c ee ff ff       	callq  400ce0 <__stack_chk_fail@plt>

0000000000401ed4 <validate>:
  401ed4:	53                   	push   %rbx
  401ed5:	89 fb                	mov    %edi,%ebx
  401ed7:	83 3d 2a 36 20 00 00 	cmpl   $0x0,0x20362a(%rip)        # 605508 <is_checker>
  401ede:	74 6b                	je     401f4b <validate+0x77>
  401ee0:	39 3d 16 36 20 00    	cmp    %edi,0x203616(%rip)        # 6054fc <vlevel>
  401ee6:	75 2f                	jne    401f17 <validate+0x43>
  401ee8:	8b 15 0a 36 20 00    	mov    0x20360a(%rip),%edx        # 6054f8 <check_level>
  401eee:	39 fa                	cmp    %edi,%edx
  401ef0:	75 39                	jne    401f2b <validate+0x57>
  401ef2:	0f be 15 2f 42 20 00 	movsbl 0x20422f(%rip),%edx        # 606128 <target_prefix>
  401ef9:	41 b8 20 55 60 00    	mov    $0x605520,%r8d
  401eff:	89 f9                	mov    %edi,%ecx
  401f01:	be 10 35 40 00       	mov    $0x403510,%esi
  401f06:	bf 01 00 00 00       	mov    $0x1,%edi
  401f0b:	b8 00 00 00 00       	mov    $0x0,%eax
  401f10:	e8 cb ee ff ff       	callq  400de0 <__printf_chk@plt>
  401f15:	5b                   	pop    %rbx
  401f16:	c3                   	retq   
  401f17:	bf f2 34 40 00       	mov    $0x4034f2,%edi
  401f1c:	e8 9f ed ff ff       	callq  400cc0 <puts@plt>
  401f21:	b8 00 00 00 00       	mov    $0x0,%eax
  401f26:	e8 1f fd ff ff       	callq  401c4a <check_fail>
  401f2b:	89 f9                	mov    %edi,%ecx
  401f2d:	be 30 36 40 00       	mov    $0x403630,%esi
  401f32:	bf 01 00 00 00       	mov    $0x1,%edi
  401f37:	b8 00 00 00 00       	mov    $0x0,%eax
  401f3c:	e8 9f ee ff ff       	callq  400de0 <__printf_chk@plt>
  401f41:	b8 00 00 00 00       	mov    $0x0,%eax
  401f46:	e8 ff fc ff ff       	callq  401c4a <check_fail>
  401f4b:	39 3d ab 35 20 00    	cmp    %edi,0x2035ab(%rip)        # 6054fc <vlevel>
  401f51:	74 18                	je     401f6b <validate+0x97>
  401f53:	bf f2 34 40 00       	mov    $0x4034f2,%edi
  401f58:	e8 63 ed ff ff       	callq  400cc0 <puts@plt>
  401f5d:	89 de                	mov    %ebx,%esi
  401f5f:	bf 00 00 00 00       	mov    $0x0,%edi
  401f64:	e8 68 fd ff ff       	callq  401cd1 <notify_server>
  401f69:	eb aa                	jmp    401f15 <validate+0x41>
  401f6b:	0f be 0d b6 41 20 00 	movsbl 0x2041b6(%rip),%ecx        # 606128 <target_prefix>
  401f72:	89 fa                	mov    %edi,%edx
  401f74:	be 58 36 40 00       	mov    $0x403658,%esi
  401f79:	bf 01 00 00 00       	mov    $0x1,%edi
  401f7e:	b8 00 00 00 00       	mov    $0x0,%eax
  401f83:	e8 58 ee ff ff       	callq  400de0 <__printf_chk@plt>
  401f88:	89 de                	mov    %ebx,%esi
  401f8a:	bf 01 00 00 00       	mov    $0x1,%edi
  401f8f:	e8 3d fd ff ff       	callq  401cd1 <notify_server>
  401f94:	e9 7c ff ff ff       	jmpq   401f15 <validate+0x41>

0000000000401f99 <fail>:
  401f99:	48 83 ec 08          	sub    $0x8,%rsp
  401f9d:	83 3d 64 35 20 00 00 	cmpl   $0x0,0x203564(%rip)        # 605508 <is_checker>
  401fa4:	75 11                	jne    401fb7 <fail+0x1e>
  401fa6:	89 fe                	mov    %edi,%esi
  401fa8:	bf 00 00 00 00       	mov    $0x0,%edi
  401fad:	e8 1f fd ff ff       	callq  401cd1 <notify_server>
  401fb2:	48 83 c4 08          	add    $0x8,%rsp
  401fb6:	c3                   	retq   
  401fb7:	b8 00 00 00 00       	mov    $0x0,%eax
  401fbc:	e8 89 fc ff ff       	callq  401c4a <check_fail>

0000000000401fc1 <bushandler>:
  401fc1:	48 83 ec 08          	sub    $0x8,%rsp
  401fc5:	83 3d 3c 35 20 00 00 	cmpl   $0x0,0x20353c(%rip)        # 605508 <is_checker>
  401fcc:	74 14                	je     401fe2 <bushandler+0x21>
  401fce:	bf 25 35 40 00       	mov    $0x403525,%edi
  401fd3:	e8 e8 ec ff ff       	callq  400cc0 <puts@plt>
  401fd8:	b8 00 00 00 00       	mov    $0x0,%eax
  401fdd:	e8 68 fc ff ff       	callq  401c4a <check_fail>
  401fe2:	bf 90 36 40 00       	mov    $0x403690,%edi
  401fe7:	e8 d4 ec ff ff       	callq  400cc0 <puts@plt>
  401fec:	bf 2f 35 40 00       	mov    $0x40352f,%edi
  401ff1:	e8 ca ec ff ff       	callq  400cc0 <puts@plt>
  401ff6:	be 00 00 00 00       	mov    $0x0,%esi
  401ffb:	bf 00 00 00 00       	mov    $0x0,%edi
  402000:	e8 cc fc ff ff       	callq  401cd1 <notify_server>
  402005:	bf 01 00 00 00       	mov    $0x1,%edi
  40200a:	e8 21 ee ff ff       	callq  400e30 <exit@plt>

000000000040200f <seghandler>:
  40200f:	48 83 ec 08          	sub    $0x8,%rsp
  402013:	83 3d ee 34 20 00 00 	cmpl   $0x0,0x2034ee(%rip)        # 605508 <is_checker>
  40201a:	74 14                	je     402030 <seghandler+0x21>
  40201c:	bf 45 35 40 00       	mov    $0x403545,%edi
  402021:	e8 9a ec ff ff       	callq  400cc0 <puts@plt>
  402026:	b8 00 00 00 00       	mov    $0x0,%eax
  40202b:	e8 1a fc ff ff       	callq  401c4a <check_fail>
  402030:	bf b0 36 40 00       	mov    $0x4036b0,%edi
  402035:	e8 86 ec ff ff       	callq  400cc0 <puts@plt>
  40203a:	bf 2f 35 40 00       	mov    $0x40352f,%edi
  40203f:	e8 7c ec ff ff       	callq  400cc0 <puts@plt>
  402044:	be 00 00 00 00       	mov    $0x0,%esi
  402049:	bf 00 00 00 00       	mov    $0x0,%edi
  40204e:	e8 7e fc ff ff       	callq  401cd1 <notify_server>
  402053:	bf 01 00 00 00       	mov    $0x1,%edi
  402058:	e8 d3 ed ff ff       	callq  400e30 <exit@plt>

000000000040205d <illegalhandler>:
  40205d:	48 83 ec 08          	sub    $0x8,%rsp
  402061:	83 3d a0 34 20 00 00 	cmpl   $0x0,0x2034a0(%rip)        # 605508 <is_checker>
  402068:	74 14                	je     40207e <illegalhandler+0x21>
  40206a:	bf 58 35 40 00       	mov    $0x403558,%edi
  40206f:	e8 4c ec ff ff       	callq  400cc0 <puts@plt>
  402074:	b8 00 00 00 00       	mov    $0x0,%eax
  402079:	e8 cc fb ff ff       	callq  401c4a <check_fail>
  40207e:	bf d8 36 40 00       	mov    $0x4036d8,%edi
  402083:	e8 38 ec ff ff       	callq  400cc0 <puts@plt>
  402088:	bf 2f 35 40 00       	mov    $0x40352f,%edi
  40208d:	e8 2e ec ff ff       	callq  400cc0 <puts@plt>
  402092:	be 00 00 00 00       	mov    $0x0,%esi
  402097:	bf 00 00 00 00       	mov    $0x0,%edi
  40209c:	e8 30 fc ff ff       	callq  401cd1 <notify_server>
  4020a1:	bf 01 00 00 00       	mov    $0x1,%edi
  4020a6:	e8 85 ed ff ff       	callq  400e30 <exit@plt>

00000000004020ab <sigalrmhandler>:
  4020ab:	48 83 ec 08          	sub    $0x8,%rsp
  4020af:	83 3d 52 34 20 00 00 	cmpl   $0x0,0x203452(%rip)        # 605508 <is_checker>
  4020b6:	74 14                	je     4020cc <sigalrmhandler+0x21>
  4020b8:	bf 6c 35 40 00       	mov    $0x40356c,%edi
  4020bd:	e8 fe eb ff ff       	callq  400cc0 <puts@plt>
  4020c2:	b8 00 00 00 00       	mov    $0x0,%eax
  4020c7:	e8 7e fb ff ff       	callq  401c4a <check_fail>
  4020cc:	ba 05 00 00 00       	mov    $0x5,%edx
  4020d1:	be 08 37 40 00       	mov    $0x403708,%esi
  4020d6:	bf 01 00 00 00       	mov    $0x1,%edi
  4020db:	b8 00 00 00 00       	mov    $0x0,%eax
  4020e0:	e8 fb ec ff ff       	callq  400de0 <__printf_chk@plt>
  4020e5:	be 00 00 00 00       	mov    $0x0,%esi
  4020ea:	bf 00 00 00 00       	mov    $0x0,%edi
  4020ef:	e8 dd fb ff ff       	callq  401cd1 <notify_server>
  4020f4:	bf 01 00 00 00       	mov    $0x1,%edi
  4020f9:	e8 32 ed ff ff       	callq  400e30 <exit@plt>

00000000004020fe <launch>:
  4020fe:	55                   	push   %rbp
  4020ff:	48 89 e5             	mov    %rsp,%rbp
  402102:	48 83 ec 10          	sub    $0x10,%rsp
  402106:	48 89 fa             	mov    %rdi,%rdx
  402109:	64 48 8b 04 25 28 00 	mov    %fs:0x28,%rax
  402110:	00 00 
  402112:	48 89 45 f8          	mov    %rax,-0x8(%rbp)
  402116:	31 c0                	xor    %eax,%eax
  402118:	48 8d 47 1e          	lea    0x1e(%rdi),%rax
  40211c:	48 83 e0 f0          	and    $0xfffffffffffffff0,%rax
  402120:	48 29 c4             	sub    %rax,%rsp
  402123:	48 8d 7c 24 0f       	lea    0xf(%rsp),%rdi
  402128:	48 83 e7 f0          	and    $0xfffffffffffffff0,%rdi
  40212c:	be f4 00 00 00       	mov    $0xf4,%esi
  402131:	e8 ca eb ff ff       	callq  400d00 <memset@plt>
  402136:	48 8b 05 63 33 20 00 	mov    0x203363(%rip),%rax        # 6054a0 <stdin@@GLIBC_2.2.5>
  40213d:	48 39 05 ac 33 20 00 	cmp    %rax,0x2033ac(%rip)        # 6054f0 <infile>
  402144:	74 38                	je     40217e <launch+0x80>
  402146:	c7 05 ac 33 20 00 00 	movl   $0x0,0x2033ac(%rip)        # 6054fc <vlevel>
  40214d:	00 00 00 
  402150:	b8 00 00 00 00       	mov    $0x0,%eax
  402155:	e8 36 f9 ff ff       	callq  401a90 <test>
  40215a:	83 3d a7 33 20 00 00 	cmpl   $0x0,0x2033a7(%rip)        # 605508 <is_checker>
  402161:	75 31                	jne    402194 <launch+0x96>
  402163:	bf 8c 35 40 00       	mov    $0x40358c,%edi
  402168:	e8 53 eb ff ff       	callq  400cc0 <puts@plt>
  40216d:	48 8b 45 f8          	mov    -0x8(%rbp),%rax
  402171:	64 48 33 04 25 28 00 	xor    %fs:0x28,%rax
  402178:	00 00 
  40217a:	75 2c                	jne    4021a8 <launch+0xaa>
  40217c:	c9                   	leaveq 
  40217d:	c3                   	retq   
  40217e:	be 74 35 40 00       	mov    $0x403574,%esi
  402183:	bf 01 00 00 00       	mov    $0x1,%edi
  402188:	b8 00 00 00 00       	mov    $0x0,%eax
  40218d:	e8 4e ec ff ff       	callq  400de0 <__printf_chk@plt>
  402192:	eb b2                	jmp    402146 <launch+0x48>
  402194:	bf 81 35 40 00       	mov    $0x403581,%edi
  402199:	e8 22 eb ff ff       	callq  400cc0 <puts@plt>
  40219e:	b8 00 00 00 00       	mov    $0x0,%eax
  4021a3:	e8 a2 fa ff ff       	callq  401c4a <check_fail>
  4021a8:	e8 33 eb ff ff       	callq  400ce0 <__stack_chk_fail@plt>

00000000004021ad <stable_launch>:
  4021ad:	53                   	push   %rbx
  4021ae:	48 89 3d 33 33 20 00 	mov    %rdi,0x203333(%rip)        # 6054e8 <global_offset>
  4021b5:	41 b9 00 00 00 00    	mov    $0x0,%r9d
  4021bb:	41 b8 00 00 00 00    	mov    $0x0,%r8d
  4021c1:	b9 32 01 00 00       	mov    $0x132,%ecx
  4021c6:	ba 07 00 00 00       	mov    $0x7,%edx
  4021cb:	be 00 00 10 00       	mov    $0x100000,%esi
  4021d0:	bf 00 60 58 55       	mov    $0x55586000,%edi
  4021d5:	e8 16 eb ff ff       	callq  400cf0 <mmap@plt>
  4021da:	48 89 c3             	mov    %rax,%rbx
  4021dd:	48 3d 00 60 58 55    	cmp    $0x55586000,%rax
  4021e3:	75 43                	jne    402228 <stable_launch+0x7b>
  4021e5:	48 8d 90 f8 ff 0f 00 	lea    0xffff8(%rax),%rdx
  4021ec:	48 89 15 3d 3f 20 00 	mov    %rdx,0x203f3d(%rip)        # 606130 <stack_top>
  4021f3:	48 89 e0             	mov    %rsp,%rax
  4021f6:	48 89 d4             	mov    %rdx,%rsp
  4021f9:	48 89 c2             	mov    %rax,%rdx
  4021fc:	48 89 15 dd 32 20 00 	mov    %rdx,0x2032dd(%rip)        # 6054e0 <global_save_stack>
  402203:	48 8b 3d de 32 20 00 	mov    0x2032de(%rip),%rdi        # 6054e8 <global_offset>
  40220a:	e8 ef fe ff ff       	callq  4020fe <launch>
  40220f:	48 8b 05 ca 32 20 00 	mov    0x2032ca(%rip),%rax        # 6054e0 <global_save_stack>
  402216:	48 89 c4             	mov    %rax,%rsp
  402219:	be 00 00 10 00       	mov    $0x100000,%esi
  40221e:	48 89 df             	mov    %rbx,%rdi
  402221:	e8 aa eb ff ff       	callq  400dd0 <munmap@plt>
  402226:	5b                   	pop    %rbx
  402227:	c3                   	retq   
  402228:	be 00 00 10 00       	mov    $0x100000,%esi
  40222d:	48 89 c7             	mov    %rax,%rdi
  402230:	e8 9b eb ff ff       	callq  400dd0 <munmap@plt>
  402235:	b9 00 60 58 55       	mov    $0x55586000,%ecx
  40223a:	ba 40 37 40 00       	mov    $0x403740,%edx
  40223f:	be 01 00 00 00       	mov    $0x1,%esi
  402244:	48 8b 3d 75 32 20 00 	mov    0x203275(%rip),%rdi        # 6054c0 <stderr@@GLIBC_2.2.5>
  40224b:	b8 00 00 00 00       	mov    $0x0,%eax
  402250:	e8 fb eb ff ff       	callq  400e50 <__fprintf_chk@plt>
  402255:	bf 01 00 00 00       	mov    $0x1,%edi
  40225a:	e8 d1 eb ff ff       	callq  400e30 <exit@plt>

000000000040225f <rio_readinitb>:
  40225f:	89 37                	mov    %esi,(%rdi)
  402261:	c7 47 04 00 00 00 00 	movl   $0x0,0x4(%rdi)
  402268:	48 8d 47 10          	lea    0x10(%rdi),%rax
  40226c:	48 89 47 08          	mov    %rax,0x8(%rdi)
  402270:	c3                   	retq   

0000000000402271 <sigalrm_handler>:
  402271:	48 83 ec 08          	sub    $0x8,%rsp
  402275:	b9 00 00 00 00       	mov    $0x0,%ecx
  40227a:	ba 80 37 40 00       	mov    $0x403780,%edx
  40227f:	be 01 00 00 00       	mov    $0x1,%esi
  402284:	48 8b 3d 35 32 20 00 	mov    0x203235(%rip),%rdi        # 6054c0 <stderr@@GLIBC_2.2.5>
  40228b:	b8 00 00 00 00       	mov    $0x0,%eax
  402290:	e8 bb eb ff ff       	callq  400e50 <__fprintf_chk@plt>
  402295:	bf 01 00 00 00       	mov    $0x1,%edi
  40229a:	e8 91 eb ff ff       	callq  400e30 <exit@plt>

000000000040229f <rio_writen>:
  40229f:	41 55                	push   %r13
  4022a1:	41 54                	push   %r12
  4022a3:	55                   	push   %rbp
  4022a4:	53                   	push   %rbx
  4022a5:	48 83 ec 08          	sub    $0x8,%rsp
  4022a9:	41 89 fc             	mov    %edi,%r12d
  4022ac:	48 89 f5             	mov    %rsi,%rbp
  4022af:	49 89 d5             	mov    %rdx,%r13
  4022b2:	48 89 d3             	mov    %rdx,%rbx
  4022b5:	eb 06                	jmp    4022bd <rio_writen+0x1e>
  4022b7:	48 29 c3             	sub    %rax,%rbx
  4022ba:	48 01 c5             	add    %rax,%rbp
  4022bd:	48 85 db             	test   %rbx,%rbx
  4022c0:	74 24                	je     4022e6 <rio_writen+0x47>
  4022c2:	48 89 da             	mov    %rbx,%rdx
  4022c5:	48 89 ee             	mov    %rbp,%rsi
  4022c8:	44 89 e7             	mov    %r12d,%edi
  4022cb:	e8 00 ea ff ff       	callq  400cd0 <write@plt>
  4022d0:	48 85 c0             	test   %rax,%rax
  4022d3:	7f e2                	jg     4022b7 <rio_writen+0x18>
  4022d5:	e8 a6 e9 ff ff       	callq  400c80 <__errno_location@plt>
  4022da:	83 38 04             	cmpl   $0x4,(%rax)
  4022dd:	75 15                	jne    4022f4 <rio_writen+0x55>
  4022df:	b8 00 00 00 00       	mov    $0x0,%eax
  4022e4:	eb d1                	jmp    4022b7 <rio_writen+0x18>
  4022e6:	4c 89 e8             	mov    %r13,%rax
  4022e9:	48 83 c4 08          	add    $0x8,%rsp
  4022ed:	5b                   	pop    %rbx
  4022ee:	5d                   	pop    %rbp
  4022ef:	41 5c                	pop    %r12
  4022f1:	41 5d                	pop    %r13
  4022f3:	c3                   	retq   
  4022f4:	48 c7 c0 ff ff ff ff 	mov    $0xffffffffffffffff,%rax
  4022fb:	eb ec                	jmp    4022e9 <rio_writen+0x4a>

00000000004022fd <rio_read>:
  4022fd:	41 55                	push   %r13
  4022ff:	41 54                	push   %r12
  402301:	55                   	push   %rbp
  402302:	53                   	push   %rbx
  402303:	48 83 ec 08          	sub    $0x8,%rsp
  402307:	48 89 fb             	mov    %rdi,%rbx
  40230a:	49 89 f5             	mov    %rsi,%r13
  40230d:	49 89 d4             	mov    %rdx,%r12
  402310:	eb 0a                	jmp    40231c <rio_read+0x1f>
  402312:	e8 69 e9 ff ff       	callq  400c80 <__errno_location@plt>
  402317:	83 38 04             	cmpl   $0x4,(%rax)
  40231a:	75 5c                	jne    402378 <rio_read+0x7b>
  40231c:	8b 6b 04             	mov    0x4(%rbx),%ebp
  40231f:	85 ed                	test   %ebp,%ebp
  402321:	7f 24                	jg     402347 <rio_read+0x4a>
  402323:	48 8d 6b 10          	lea    0x10(%rbx),%rbp
  402327:	8b 3b                	mov    (%rbx),%edi
  402329:	ba 00 20 00 00       	mov    $0x2000,%edx
  40232e:	48 89 ee             	mov    %rbp,%rsi
  402331:	e8 fa e9 ff ff       	callq  400d30 <read@plt>
  402336:	89 43 04             	mov    %eax,0x4(%rbx)
  402339:	85 c0                	test   %eax,%eax
  40233b:	78 d5                	js     402312 <rio_read+0x15>
  40233d:	85 c0                	test   %eax,%eax
  40233f:	74 40                	je     402381 <rio_read+0x84>
  402341:	48 89 6b 08          	mov    %rbp,0x8(%rbx)
  402345:	eb d5                	jmp    40231c <rio_read+0x1f>
  402347:	89 e8                	mov    %ebp,%eax
  402349:	4c 39 e0             	cmp    %r12,%rax
  40234c:	72 03                	jb     402351 <rio_read+0x54>
  40234e:	44 89 e5             	mov    %r12d,%ebp
  402351:	4c 63 e5             	movslq %ebp,%r12
  402354:	48 8b 73 08          	mov    0x8(%rbx),%rsi
  402358:	4c 89 e2             	mov    %r12,%rdx
  40235b:	4c 89 ef             	mov    %r13,%rdi
  40235e:	e8 1d ea ff ff       	callq  400d80 <memcpy@plt>
  402363:	4c 01 63 08          	add    %r12,0x8(%rbx)
  402367:	29 6b 04             	sub    %ebp,0x4(%rbx)
  40236a:	4c 89 e0             	mov    %r12,%rax
  40236d:	48 83 c4 08          	add    $0x8,%rsp
  402371:	5b                   	pop    %rbx
  402372:	5d                   	pop    %rbp
  402373:	41 5c                	pop    %r12
  402375:	41 5d                	pop    %r13
  402377:	c3                   	retq   
  402378:	48 c7 c0 ff ff ff ff 	mov    $0xffffffffffffffff,%rax
  40237f:	eb ec                	jmp    40236d <rio_read+0x70>
  402381:	b8 00 00 00 00       	mov    $0x0,%eax
  402386:	eb e5                	jmp    40236d <rio_read+0x70>

0000000000402388 <rio_readlineb>:
  402388:	41 55                	push   %r13
  40238a:	41 54                	push   %r12
  40238c:	55                   	push   %rbp
  40238d:	53                   	push   %rbx
  40238e:	48 83 ec 18          	sub    $0x18,%rsp
  402392:	49 89 fd             	mov    %rdi,%r13
  402395:	48 89 f5             	mov    %rsi,%rbp
  402398:	49 89 d4             	mov    %rdx,%r12
  40239b:	64 48 8b 04 25 28 00 	mov    %fs:0x28,%rax
  4023a2:	00 00 
  4023a4:	48 89 44 24 08       	mov    %rax,0x8(%rsp)
  4023a9:	31 c0                	xor    %eax,%eax
  4023ab:	bb 01 00 00 00       	mov    $0x1,%ebx
  4023b0:	4c 39 e3             	cmp    %r12,%rbx
  4023b3:	73 47                	jae    4023fc <rio_readlineb+0x74>
  4023b5:	ba 01 00 00 00       	mov    $0x1,%edx
  4023ba:	48 8d 74 24 07       	lea    0x7(%rsp),%rsi
  4023bf:	4c 89 ef             	mov    %r13,%rdi
  4023c2:	e8 36 ff ff ff       	callq  4022fd <rio_read>
  4023c7:	83 f8 01             	cmp    $0x1,%eax
  4023ca:	75 1c                	jne    4023e8 <rio_readlineb+0x60>
  4023cc:	48 8d 45 01          	lea    0x1(%rbp),%rax
  4023d0:	0f b6 54 24 07       	movzbl 0x7(%rsp),%edx
  4023d5:	88 55 00             	mov    %dl,0x0(%rbp)
  4023d8:	80 7c 24 07 0a       	cmpb   $0xa,0x7(%rsp)
  4023dd:	74 1a                	je     4023f9 <rio_readlineb+0x71>
  4023df:	48 83 c3 01          	add    $0x1,%rbx
  4023e3:	48 89 c5             	mov    %rax,%rbp
  4023e6:	eb c8                	jmp    4023b0 <rio_readlineb+0x28>
  4023e8:	85 c0                	test   %eax,%eax
  4023ea:	75 32                	jne    40241e <rio_readlineb+0x96>
  4023ec:	48 83 fb 01          	cmp    $0x1,%rbx
  4023f0:	75 0a                	jne    4023fc <rio_readlineb+0x74>
  4023f2:	b8 00 00 00 00       	mov    $0x0,%eax
  4023f7:	eb 0a                	jmp    402403 <rio_readlineb+0x7b>
  4023f9:	48 89 c5             	mov    %rax,%rbp
  4023fc:	c6 45 00 00          	movb   $0x0,0x0(%rbp)
  402400:	48 89 d8             	mov    %rbx,%rax
  402403:	48 8b 4c 24 08       	mov    0x8(%rsp),%rcx
  402408:	64 48 33 0c 25 28 00 	xor    %fs:0x28,%rcx
  40240f:	00 00 
  402411:	75 14                	jne    402427 <rio_readlineb+0x9f>
  402413:	48 83 c4 18          	add    $0x18,%rsp
  402417:	5b                   	pop    %rbx
  402418:	5d                   	pop    %rbp
  402419:	41 5c                	pop    %r12
  40241b:	41 5d                	pop    %r13
  40241d:	c3                   	retq   
  40241e:	48 c7 c0 ff ff ff ff 	mov    $0xffffffffffffffff,%rax
  402425:	eb dc                	jmp    402403 <rio_readlineb+0x7b>
  402427:	e8 b4 e8 ff ff       	callq  400ce0 <__stack_chk_fail@plt>

000000000040242c <urlencode>:
  40242c:	41 54                	push   %r12
  40242e:	55                   	push   %rbp
  40242f:	53                   	push   %rbx
  402430:	48 83 ec 10          	sub    $0x10,%rsp
  402434:	48 89 fb             	mov    %rdi,%rbx
  402437:	48 89 f5             	mov    %rsi,%rbp
  40243a:	64 48 8b 04 25 28 00 	mov    %fs:0x28,%rax
  402441:	00 00 
  402443:	48 89 44 24 08       	mov    %rax,0x8(%rsp)
  402448:	31 c0                	xor    %eax,%eax
  40244a:	48 c7 c1 ff ff ff ff 	mov    $0xffffffffffffffff,%rcx
  402451:	f2 ae                	repnz scas %es:(%rdi),%al
  402453:	48 89 ce             	mov    %rcx,%rsi
  402456:	48 f7 d6             	not    %rsi
  402459:	8d 46 ff             	lea    -0x1(%rsi),%eax
  40245c:	eb 0f                	jmp    40246d <urlencode+0x41>
  40245e:	44 88 45 00          	mov    %r8b,0x0(%rbp)
  402462:	48 8d 6d 01          	lea    0x1(%rbp),%rbp
  402466:	48 83 c3 01          	add    $0x1,%rbx
  40246a:	44 89 e0             	mov    %r12d,%eax
  40246d:	44 8d 60 ff          	lea    -0x1(%rax),%r12d
  402471:	85 c0                	test   %eax,%eax
  402473:	0f 84 a6 00 00 00    	je     40251f <urlencode+0xf3>
  402479:	44 0f b6 03          	movzbl (%rbx),%r8d
  40247d:	41 80 f8 2a          	cmp    $0x2a,%r8b
  402481:	0f 94 c2             	sete   %dl
  402484:	41 80 f8 2d          	cmp    $0x2d,%r8b
  402488:	0f 94 c0             	sete   %al
  40248b:	08 c2                	or     %al,%dl
  40248d:	75 cf                	jne    40245e <urlencode+0x32>
  40248f:	41 80 f8 2e          	cmp    $0x2e,%r8b
  402493:	74 c9                	je     40245e <urlencode+0x32>
  402495:	41 80 f8 5f          	cmp    $0x5f,%r8b
  402499:	74 c3                	je     40245e <urlencode+0x32>
  40249b:	41 8d 40 d0          	lea    -0x30(%r8),%eax
  40249f:	3c 09                	cmp    $0x9,%al
  4024a1:	76 bb                	jbe    40245e <urlencode+0x32>
  4024a3:	41 8d 40 bf          	lea    -0x41(%r8),%eax
  4024a7:	3c 19                	cmp    $0x19,%al
  4024a9:	76 b3                	jbe    40245e <urlencode+0x32>
  4024ab:	41 8d 40 9f          	lea    -0x61(%r8),%eax
  4024af:	3c 19                	cmp    $0x19,%al
  4024b1:	76 ab                	jbe    40245e <urlencode+0x32>
  4024b3:	41 80 f8 20          	cmp    $0x20,%r8b
  4024b7:	74 54                	je     40250d <urlencode+0xe1>
  4024b9:	41 8d 40 e0          	lea    -0x20(%r8),%eax
  4024bd:	3c 5f                	cmp    $0x5f,%al
  4024bf:	0f 96 c2             	setbe  %dl
  4024c2:	41 80 f8 09          	cmp    $0x9,%r8b
  4024c6:	0f 94 c0             	sete   %al
  4024c9:	08 c2                	or     %al,%dl
  4024cb:	74 4d                	je     40251a <urlencode+0xee>
  4024cd:	45 0f b6 c0          	movzbl %r8b,%r8d
  4024d1:	b9 18 38 40 00       	mov    $0x403818,%ecx
  4024d6:	ba 08 00 00 00       	mov    $0x8,%edx
  4024db:	be 01 00 00 00       	mov    $0x1,%esi
  4024e0:	48 89 e7             	mov    %rsp,%rdi
  4024e3:	b8 00 00 00 00       	mov    $0x0,%eax
  4024e8:	e8 73 e9 ff ff       	callq  400e60 <__sprintf_chk@plt>
  4024ed:	0f b6 04 24          	movzbl (%rsp),%eax
  4024f1:	88 45 00             	mov    %al,0x0(%rbp)
  4024f4:	0f b6 44 24 01       	movzbl 0x1(%rsp),%eax
  4024f9:	88 45 01             	mov    %al,0x1(%rbp)
  4024fc:	0f b6 44 24 02       	movzbl 0x2(%rsp),%eax
  402501:	88 45 02             	mov    %al,0x2(%rbp)
  402504:	48 8d 6d 03          	lea    0x3(%rbp),%rbp
  402508:	e9 59 ff ff ff       	jmpq   402466 <urlencode+0x3a>
  40250d:	c6 45 00 2b          	movb   $0x2b,0x0(%rbp)
  402511:	48 8d 6d 01          	lea    0x1(%rbp),%rbp
  402515:	e9 4c ff ff ff       	jmpq   402466 <urlencode+0x3a>
  40251a:	b8 ff ff ff ff       	mov    $0xffffffff,%eax
  40251f:	48 8b 74 24 08       	mov    0x8(%rsp),%rsi
  402524:	64 48 33 34 25 28 00 	xor    %fs:0x28,%rsi
  40252b:	00 00 
  40252d:	75 09                	jne    402538 <urlencode+0x10c>
  40252f:	48 83 c4 10          	add    $0x10,%rsp
  402533:	5b                   	pop    %rbx
  402534:	5d                   	pop    %rbp
  402535:	41 5c                	pop    %r12
  402537:	c3                   	retq   
  402538:	e8 a3 e7 ff ff       	callq  400ce0 <__stack_chk_fail@plt>

000000000040253d <submitr>:
  40253d:	41 57                	push   %r15
  40253f:	41 56                	push   %r14
  402541:	41 55                	push   %r13
  402543:	41 54                	push   %r12
  402545:	55                   	push   %rbp
  402546:	53                   	push   %rbx
  402547:	48 81 ec 58 a0 00 00 	sub    $0xa058,%rsp
  40254e:	49 89 fc             	mov    %rdi,%r12
  402551:	89 74 24 04          	mov    %esi,0x4(%rsp)
  402555:	49 89 d7             	mov    %rdx,%r15
  402558:	49 89 ce             	mov    %rcx,%r14
  40255b:	4c 89 44 24 08       	mov    %r8,0x8(%rsp)
  402560:	4d 89 cd             	mov    %r9,%r13
  402563:	48 8b ac 24 90 a0 00 	mov    0xa090(%rsp),%rbp
  40256a:	00 
  40256b:	64 48 8b 04 25 28 00 	mov    %fs:0x28,%rax
  402572:	00 00 
  402574:	48 89 84 24 48 a0 00 	mov    %rax,0xa048(%rsp)
  40257b:	00 
  40257c:	31 c0                	xor    %eax,%eax
  40257e:	c7 44 24 1c 00 00 00 	movl   $0x0,0x1c(%rsp)
  402585:	00 
  402586:	ba 00 00 00 00       	mov    $0x0,%edx
  40258b:	be 01 00 00 00       	mov    $0x1,%esi
  402590:	bf 02 00 00 00       	mov    $0x2,%edi
  402595:	e8 d6 e8 ff ff       	callq  400e70 <socket@plt>
  40259a:	85 c0                	test   %eax,%eax
  40259c:	0f 88 9b 02 00 00    	js     40283d <submitr+0x300>
  4025a2:	89 c3                	mov    %eax,%ebx
  4025a4:	4c 89 e7             	mov    %r12,%rdi
  4025a7:	e8 a4 e7 ff ff       	callq  400d50 <gethostbyname@plt>
  4025ac:	48 85 c0             	test   %rax,%rax
  4025af:	0f 84 d4 02 00 00    	je     402889 <submitr+0x34c>
  4025b5:	48 c7 44 24 22 00 00 	movq   $0x0,0x22(%rsp)
  4025bc:	00 00 
  4025be:	c7 44 24 2a 00 00 00 	movl   $0x0,0x2a(%rsp)
  4025c5:	00 
  4025c6:	66 c7 44 24 2e 00 00 	movw   $0x0,0x2e(%rsp)
  4025cd:	66 c7 44 24 20 02 00 	movw   $0x2,0x20(%rsp)
  4025d4:	48 63 50 14          	movslq 0x14(%rax),%rdx
  4025d8:	48 8b 40 18          	mov    0x18(%rax),%rax
  4025dc:	48 8b 30             	mov    (%rax),%rsi
  4025df:	48 8d 7c 24 24       	lea    0x24(%rsp),%rdi
  4025e4:	b9 0c 00 00 00       	mov    $0xc,%ecx
  4025e9:	e8 72 e7 ff ff       	callq  400d60 <__memmove_chk@plt>
  4025ee:	0f b7 44 24 04       	movzwl 0x4(%rsp),%eax
  4025f3:	66 c1 c8 08          	ror    $0x8,%ax
  4025f7:	66 89 44 24 22       	mov    %ax,0x22(%rsp)
  4025fc:	ba 10 00 00 00       	mov    $0x10,%edx
  402601:	48 8d 74 24 20       	lea    0x20(%rsp),%rsi
  402606:	89 df                	mov    %ebx,%edi
  402608:	e8 33 e8 ff ff       	callq  400e40 <connect@plt>
  40260d:	85 c0                	test   %eax,%eax
  40260f:	0f 88 dc 02 00 00    	js     4028f1 <submitr+0x3b4>
  402615:	48 c7 c6 ff ff ff ff 	mov    $0xffffffffffffffff,%rsi
  40261c:	b8 00 00 00 00       	mov    $0x0,%eax
  402621:	48 89 f1             	mov    %rsi,%rcx
  402624:	4c 89 ef             	mov    %r13,%rdi
  402627:	f2 ae                	repnz scas %es:(%rdi),%al
  402629:	48 89 ca             	mov    %rcx,%rdx
  40262c:	48 f7 d2             	not    %rdx
  40262f:	48 89 f1             	mov    %rsi,%rcx
  402632:	4c 89 ff             	mov    %r15,%rdi
  402635:	f2 ae                	repnz scas %es:(%rdi),%al
  402637:	48 f7 d1             	not    %rcx
  40263a:	49 89 c8             	mov    %rcx,%r8
  40263d:	48 89 f1             	mov    %rsi,%rcx
  402640:	4c 89 f7             	mov    %r14,%rdi
  402643:	f2 ae                	repnz scas %es:(%rdi),%al
  402645:	48 f7 d1             	not    %rcx
  402648:	4d 8d 44 08 fe       	lea    -0x2(%r8,%rcx,1),%r8
  40264d:	48 89 f1             	mov    %rsi,%rcx
  402650:	48 8b 7c 24 08       	mov    0x8(%rsp),%rdi
  402655:	f2 ae                	repnz scas %es:(%rdi),%al
  402657:	48 89 c8             	mov    %rcx,%rax
  40265a:	48 f7 d0             	not    %rax
  40265d:	49 8d 4c 00 ff       	lea    -0x1(%r8,%rax,1),%rcx
  402662:	48 8d 44 52 fd       	lea    -0x3(%rdx,%rdx,2),%rax
  402667:	48 8d 84 01 80 00 00 	lea    0x80(%rcx,%rax,1),%rax
  40266e:	00 
  40266f:	48 3d 00 20 00 00    	cmp    $0x2000,%rax
  402675:	0f 87 d0 02 00 00    	ja     40294b <submitr+0x40e>
  40267b:	48 8d b4 24 40 40 00 	lea    0x4040(%rsp),%rsi
  402682:	00 
  402683:	b9 00 04 00 00       	mov    $0x400,%ecx
  402688:	b8 00 00 00 00       	mov    $0x0,%eax
  40268d:	48 89 f7             	mov    %rsi,%rdi
  402690:	f3 48 ab             	rep stos %rax,%es:(%rdi)
  402693:	4c 89 ef             	mov    %r13,%rdi
  402696:	e8 91 fd ff ff       	callq  40242c <urlencode>
  40269b:	85 c0                	test   %eax,%eax
  40269d:	0f 88 1b 03 00 00    	js     4029be <submitr+0x481>
  4026a3:	4c 8d ac 24 40 20 00 	lea    0x2040(%rsp),%r13
  4026aa:	00 
  4026ab:	41 54                	push   %r12
  4026ad:	48 8d 84 24 48 40 00 	lea    0x4048(%rsp),%rax
  4026b4:	00 
  4026b5:	50                   	push   %rax
  4026b6:	4d 89 f9             	mov    %r15,%r9
  4026b9:	4d 89 f0             	mov    %r14,%r8
  4026bc:	b9 a8 37 40 00       	mov    $0x4037a8,%ecx
  4026c1:	ba 00 20 00 00       	mov    $0x2000,%edx
  4026c6:	be 01 00 00 00       	mov    $0x1,%esi
  4026cb:	4c 89 ef             	mov    %r13,%rdi
  4026ce:	b8 00 00 00 00       	mov    $0x0,%eax
  4026d3:	e8 88 e7 ff ff       	callq  400e60 <__sprintf_chk@plt>
  4026d8:	48 c7 c1 ff ff ff ff 	mov    $0xffffffffffffffff,%rcx
  4026df:	b8 00 00 00 00       	mov    $0x0,%eax
  4026e4:	4c 89 ef             	mov    %r13,%rdi
  4026e7:	f2 ae                	repnz scas %es:(%rdi),%al
  4026e9:	48 89 ca             	mov    %rcx,%rdx
  4026ec:	48 f7 d2             	not    %rdx
  4026ef:	48 8d 52 ff          	lea    -0x1(%rdx),%rdx
  4026f3:	4c 89 ee             	mov    %r13,%rsi
  4026f6:	89 df                	mov    %ebx,%edi
  4026f8:	e8 a2 fb ff ff       	callq  40229f <rio_writen>
  4026fd:	48 83 c4 10          	add    $0x10,%rsp
  402701:	48 85 c0             	test   %rax,%rax
  402704:	0f 88 3f 03 00 00    	js     402a49 <submitr+0x50c>
  40270a:	89 de                	mov    %ebx,%esi
  40270c:	48 8d 7c 24 30       	lea    0x30(%rsp),%rdi
  402711:	e8 49 fb ff ff       	callq  40225f <rio_readinitb>
  402716:	ba 00 20 00 00       	mov    $0x2000,%edx
  40271b:	48 8d b4 24 40 20 00 	lea    0x2040(%rsp),%rsi
  402722:	00 
  402723:	48 8d 7c 24 30       	lea    0x30(%rsp),%rdi
  402728:	e8 5b fc ff ff       	callq  402388 <rio_readlineb>
  40272d:	48 85 c0             	test   %rax,%rax
  402730:	0f 8e 82 03 00 00    	jle    402ab8 <submitr+0x57b>
  402736:	4c 8d 84 24 40 80 00 	lea    0x8040(%rsp),%r8
  40273d:	00 
  40273e:	48 8d 4c 24 1c       	lea    0x1c(%rsp),%rcx
  402743:	48 8d 94 24 40 60 00 	lea    0x6040(%rsp),%rdx
  40274a:	00 
  40274b:	be 1f 38 40 00       	mov    $0x40381f,%esi
  402750:	48 8d bc 24 40 20 00 	lea    0x2040(%rsp),%rdi
  402757:	00 
  402758:	b8 00 00 00 00       	mov    $0x0,%eax
  40275d:	e8 5e e6 ff ff       	callq  400dc0 <__isoc99_sscanf@plt>
  402762:	48 8d b4 24 40 20 00 	lea    0x2040(%rsp),%rsi
  402769:	00 
  40276a:	bf 36 38 40 00       	mov    $0x403836,%edi
  40276f:	b9 03 00 00 00       	mov    $0x3,%ecx
  402774:	f3 a6                	repz cmpsb %es:(%rdi),%ds:(%rsi)
  402776:	0f 97 c0             	seta   %al
  402779:	1c 00                	sbb    $0x0,%al
  40277b:	84 c0                	test   %al,%al
  40277d:	0f 84 b3 03 00 00    	je     402b36 <submitr+0x5f9>
  402783:	ba 00 20 00 00       	mov    $0x2000,%edx
  402788:	48 8d b4 24 40 20 00 	lea    0x2040(%rsp),%rsi
  40278f:	00 
  402790:	48 8d 7c 24 30       	lea    0x30(%rsp),%rdi
  402795:	e8 ee fb ff ff       	callq  402388 <rio_readlineb>
  40279a:	48 85 c0             	test   %rax,%rax
  40279d:	7f c3                	jg     402762 <submitr+0x225>
  40279f:	48 b8 45 72 72 6f 72 	movabs $0x43203a726f727245,%rax
  4027a6:	3a 20 43 
  4027a9:	48 ba 6c 69 65 6e 74 	movabs $0x6e7520746e65696c,%rdx
  4027b0:	20 75 6e 
  4027b3:	48 89 45 00          	mov    %rax,0x0(%rbp)
  4027b7:	48 89 55 08          	mov    %rdx,0x8(%rbp)
  4027bb:	48 b8 61 62 6c 65 20 	movabs $0x206f7420656c6261,%rax
  4027c2:	74 6f 20 
  4027c5:	48 ba 72 65 61 64 20 	movabs $0x6165682064616572,%rdx
  4027cc:	68 65 61 
  4027cf:	48 89 45 10          	mov    %rax,0x10(%rbp)
  4027d3:	48 89 55 18          	mov    %rdx,0x18(%rbp)
  4027d7:	48 b8 64 65 72 73 20 	movabs $0x6f72662073726564,%rax
  4027de:	66 72 6f 
  4027e1:	48 ba 6d 20 74 68 65 	movabs $0x657220656874206d,%rdx
  4027e8:	20 72 65 
  4027eb:	48 89 45 20          	mov    %rax,0x20(%rbp)
  4027ef:	48 89 55 28          	mov    %rdx,0x28(%rbp)
  4027f3:	48 b8 73 75 6c 74 20 	movabs $0x72657320746c7573,%rax
  4027fa:	73 65 72 
  4027fd:	48 89 45 30          	mov    %rax,0x30(%rbp)
  402801:	c7 45 38 76 65 72 00 	movl   $0x726576,0x38(%rbp)
  402808:	89 df                	mov    %ebx,%edi
  40280a:	e8 11 e5 ff ff       	callq  400d20 <close@plt>
  40280f:	b8 ff ff ff ff       	mov    $0xffffffff,%eax
  402814:	48 8b 9c 24 48 a0 00 	mov    0xa048(%rsp),%rbx
  40281b:	00 
  40281c:	64 48 33 1c 25 28 00 	xor    %fs:0x28,%rbx
  402823:	00 00 
  402825:	0f 85 76 04 00 00    	jne    402ca1 <submitr+0x764>
  40282b:	48 81 c4 58 a0 00 00 	add    $0xa058,%rsp
  402832:	5b                   	pop    %rbx
  402833:	5d                   	pop    %rbp
  402834:	41 5c                	pop    %r12
  402836:	41 5d                	pop    %r13
  402838:	41 5e                	pop    %r14
  40283a:	41 5f                	pop    %r15
  40283c:	c3                   	retq   
  40283d:	48 b8 45 72 72 6f 72 	movabs $0x43203a726f727245,%rax
  402844:	3a 20 43 
  402847:	48 ba 6c 69 65 6e 74 	movabs $0x6e7520746e65696c,%rdx
  40284e:	20 75 6e 
  402851:	48 89 45 00          	mov    %rax,0x0(%rbp)
  402855:	48 89 55 08          	mov    %rdx,0x8(%rbp)
  402859:	48 b8 61 62 6c 65 20 	movabs $0x206f7420656c6261,%rax
  402860:	74 6f 20 
  402863:	48 ba 63 72 65 61 74 	movabs $0x7320657461657263,%rdx
  40286a:	65 20 73 
  40286d:	48 89 45 10          	mov    %rax,0x10(%rbp)
  402871:	48 89 55 18          	mov    %rdx,0x18(%rbp)
  402875:	c7 45 20 6f 63 6b 65 	movl   $0x656b636f,0x20(%rbp)
  40287c:	66 c7 45 24 74 00    	movw   $0x74,0x24(%rbp)
  402882:	b8 ff ff ff ff       	mov    $0xffffffff,%eax
  402887:	eb 8b                	jmp    402814 <submitr+0x2d7>
  402889:	48 b8 45 72 72 6f 72 	movabs $0x44203a726f727245,%rax
  402890:	3a 20 44 
  402893:	48 ba 4e 53 20 69 73 	movabs $0x6e7520736920534e,%rdx
  40289a:	20 75 6e 
  40289d:	48 89 45 00          	mov    %rax,0x0(%rbp)
  4028a1:	48 89 55 08          	mov    %rdx,0x8(%rbp)
  4028a5:	48 b8 61 62 6c 65 20 	movabs $0x206f7420656c6261,%rax
  4028ac:	74 6f 20 
  4028af:	48 ba 72 65 73 6f 6c 	movabs $0x2065766c6f736572,%rdx
  4028b6:	76 65 20 
  4028b9:	48 89 45 10          	mov    %rax,0x10(%rbp)
  4028bd:	48 89 55 18          	mov    %rdx,0x18(%rbp)
  4028c1:	48 b8 73 65 72 76 65 	movabs $0x6120726576726573,%rax
  4028c8:	72 20 61 
  4028cb:	48 89 45 20          	mov    %rax,0x20(%rbp)
  4028cf:	c7 45 28 64 64 72 65 	movl   $0x65726464,0x28(%rbp)
  4028d6:	66 c7 45 2c 73 73    	movw   $0x7373,0x2c(%rbp)
  4028dc:	c6 45 2e 00          	movb   $0x0,0x2e(%rbp)
  4028e0:	89 df                	mov    %ebx,%edi
  4028e2:	e8 39 e4 ff ff       	callq  400d20 <close@plt>
  4028e7:	b8 ff ff ff ff       	mov    $0xffffffff,%eax
  4028ec:	e9 23 ff ff ff       	jmpq   402814 <submitr+0x2d7>
  4028f1:	48 b8 45 72 72 6f 72 	movabs $0x55203a726f727245,%rax
  4028f8:	3a 20 55 
  4028fb:	48 ba 6e 61 62 6c 65 	movabs $0x6f7420656c62616e,%rdx
  402902:	20 74 6f 
  402905:	48 89 45 00          	mov    %rax,0x0(%rbp)
  402909:	48 89 55 08          	mov    %rdx,0x8(%rbp)
  40290d:	48 b8 20 63 6f 6e 6e 	movabs $0x7463656e6e6f6320,%rax
  402914:	65 63 74 
  402917:	48 ba 20 74 6f 20 74 	movabs $0x20656874206f7420,%rdx
  40291e:	68 65 20 
  402921:	48 89 45 10          	mov    %rax,0x10(%rbp)
  402925:	48 89 55 18          	mov    %rdx,0x18(%rbp)
  402929:	c7 45 20 73 65 72 76 	movl   $0x76726573,0x20(%rbp)
  402930:	66 c7 45 24 65 72    	movw   $0x7265,0x24(%rbp)
  402936:	c6 45 26 00          	movb   $0x0,0x26(%rbp)
  40293a:	89 df                	mov    %ebx,%edi
  40293c:	e8 df e3 ff ff       	callq  400d20 <close@plt>
  402941:	b8 ff ff ff ff       	mov    $0xffffffff,%eax
  402946:	e9 c9 fe ff ff       	jmpq   402814 <submitr+0x2d7>
  40294b:	48 b8 45 72 72 6f 72 	movabs $0x52203a726f727245,%rax
  402952:	3a 20 52 
  402955:	48 ba 65 73 75 6c 74 	movabs $0x747320746c757365,%rdx
  40295c:	20 73 74 
  40295f:	48 89 45 00          	mov    %rax,0x0(%rbp)
  402963:	48 89 55 08          	mov    %rdx,0x8(%rbp)
  402967:	48 b8 72 69 6e 67 20 	movabs $0x6f6f7420676e6972,%rax
  40296e:	74 6f 6f 
  402971:	48 ba 20 6c 61 72 67 	movabs $0x202e656772616c20,%rdx
  402978:	65 2e 20 
  40297b:	48 89 45 10          	mov    %rax,0x10(%rbp)
  40297f:	48 89 55 18          	mov    %rdx,0x18(%rbp)
  402983:	48 b8 49 6e 63 72 65 	movabs $0x6573616572636e49,%rax
  40298a:	61 73 65 
  40298d:	48 ba 20 53 55 42 4d 	movabs $0x5254494d42555320,%rdx
  402994:	49 54 52 
  402997:	48 89 45 20          	mov    %rax,0x20(%rbp)
  40299b:	48 89 55 28          	mov    %rdx,0x28(%rbp)
  40299f:	48 b8 5f 4d 41 58 42 	movabs $0x46554258414d5f,%rax
  4029a6:	55 46 00 
  4029a9:	48 89 45 30          	mov    %rax,0x30(%rbp)
  4029ad:	89 df                	mov    %ebx,%edi
  4029af:	e8 6c e3 ff ff       	callq  400d20 <close@plt>
  4029b4:	b8 ff ff ff ff       	mov    $0xffffffff,%eax
  4029b9:	e9 56 fe ff ff       	jmpq   402814 <submitr+0x2d7>
  4029be:	48 b8 45 72 72 6f 72 	movabs $0x52203a726f727245,%rax
  4029c5:	3a 20 52 
  4029c8:	48 ba 65 73 75 6c 74 	movabs $0x747320746c757365,%rdx
  4029cf:	20 73 74 
  4029d2:	48 89 45 00          	mov    %rax,0x0(%rbp)
  4029d6:	48 89 55 08          	mov    %rdx,0x8(%rbp)
  4029da:	48 b8 72 69 6e 67 20 	movabs $0x6e6f6320676e6972,%rax
  4029e1:	63 6f 6e 
  4029e4:	48 ba 74 61 69 6e 73 	movabs $0x6e6120736e696174,%rdx
  4029eb:	20 61 6e 
  4029ee:	48 89 45 10          	mov    %rax,0x10(%rbp)
  4029f2:	48 89 55 18          	mov    %rdx,0x18(%rbp)
  4029f6:	48 b8 20 69 6c 6c 65 	movabs $0x6c6167656c6c6920,%rax
  4029fd:	67 61 6c 
  402a00:	48 ba 20 6f 72 20 75 	movabs $0x72706e7520726f20,%rdx
  402a07:	6e 70 72 
  402a0a:	48 89 45 20          	mov    %rax,0x20(%rbp)
  402a0e:	48 89 55 28          	mov    %rdx,0x28(%rbp)
  402a12:	48 b8 69 6e 74 61 62 	movabs $0x20656c6261746e69,%rax
  402a19:	6c 65 20 
  402a1c:	48 ba 63 68 61 72 61 	movabs $0x6574636172616863,%rdx
  402a23:	63 74 65 
  402a26:	48 89 45 30          	mov    %rax,0x30(%rbp)
  402a2a:	48 89 55 38          	mov    %rdx,0x38(%rbp)
  402a2e:	66 c7 45 40 72 2e    	movw   $0x2e72,0x40(%rbp)
  402a34:	c6 45 42 00          	movb   $0x0,0x42(%rbp)
  402a38:	89 df                	mov    %ebx,%edi
  402a3a:	e8 e1 e2 ff ff       	callq  400d20 <close@plt>
  402a3f:	b8 ff ff ff ff       	mov    $0xffffffff,%eax
  402a44:	e9 cb fd ff ff       	jmpq   402814 <submitr+0x2d7>
  402a49:	48 b8 45 72 72 6f 72 	movabs $0x43203a726f727245,%rax
  402a50:	3a 20 43 
  402a53:	48 ba 6c 69 65 6e 74 	movabs $0x6e7520746e65696c,%rdx
  402a5a:	20 75 6e 
  402a5d:	48 89 45 00          	mov    %rax,0x0(%rbp)
  402a61:	48 89 55 08          	mov    %rdx,0x8(%rbp)
  402a65:	48 b8 61 62 6c 65 20 	movabs $0x206f7420656c6261,%rax
  402a6c:	74 6f 20 
  402a6f:	48 ba 77 72 69 74 65 	movabs $0x6f74206574697277,%rdx
  402a76:	20 74 6f 
  402a79:	48 89 45 10          	mov    %rax,0x10(%rbp)
  402a7d:	48 89 55 18          	mov    %rdx,0x18(%rbp)
  402a81:	48 b8 20 74 68 65 20 	movabs $0x7365722065687420,%rax
  402a88:	72 65 73 
  402a8b:	48 ba 75 6c 74 20 73 	movabs $0x7672657320746c75,%rdx
  402a92:	65 72 76 
  402a95:	48 89 45 20          	mov    %rax,0x20(%rbp)
  402a99:	48 89 55 28          	mov    %rdx,0x28(%rbp)
  402a9d:	66 c7 45 30 65 72    	movw   $0x7265,0x30(%rbp)
  402aa3:	c6 45 32 00          	movb   $0x0,0x32(%rbp)
  402aa7:	89 df                	mov    %ebx,%edi
  402aa9:	e8 72 e2 ff ff       	callq  400d20 <close@plt>
  402aae:	b8 ff ff ff ff       	mov    $0xffffffff,%eax
  402ab3:	e9 5c fd ff ff       	jmpq   402814 <submitr+0x2d7>
  402ab8:	48 b8 45 72 72 6f 72 	movabs $0x43203a726f727245,%rax
  402abf:	3a 20 43 
  402ac2:	48 ba 6c 69 65 6e 74 	movabs $0x6e7520746e65696c,%rdx
  402ac9:	20 75 6e 
  402acc:	48 89 45 00          	mov    %rax,0x0(%rbp)
  402ad0:	48 89 55 08          	mov    %rdx,0x8(%rbp)
  402ad4:	48 b8 61 62 6c 65 20 	movabs $0x206f7420656c6261,%rax
  402adb:	74 6f 20 
  402ade:	48 ba 72 65 61 64 20 	movabs $0x7269662064616572,%rdx
  402ae5:	66 69 72 
  402ae8:	48 89 45 10          	mov    %rax,0x10(%rbp)
  402aec:	48 89 55 18          	mov    %rdx,0x18(%rbp)
  402af0:	48 b8 73 74 20 68 65 	movabs $0x6564616568207473,%rax
  402af7:	61 64 65 
  402afa:	48 ba 72 20 66 72 6f 	movabs $0x72206d6f72662072,%rdx
  402b01:	6d 20 72 
  402b04:	48 89 45 20          	mov    %rax,0x20(%rbp)
  402b08:	48 89 55 28          	mov    %rdx,0x28(%rbp)
  402b0c:	48 b8 65 73 75 6c 74 	movabs $0x657320746c757365,%rax
  402b13:	20 73 65 
  402b16:	48 89 45 30          	mov    %rax,0x30(%rbp)
  402b1a:	c7 45 38 72 76 65 72 	movl   $0x72657672,0x38(%rbp)
  402b21:	c6 45 3c 00          	movb   $0x0,0x3c(%rbp)
  402b25:	89 df                	mov    %ebx,%edi
  402b27:	e8 f4 e1 ff ff       	callq  400d20 <close@plt>
  402b2c:	b8 ff ff ff ff       	mov    $0xffffffff,%eax
  402b31:	e9 de fc ff ff       	jmpq   402814 <submitr+0x2d7>
  402b36:	ba 00 20 00 00       	mov    $0x2000,%edx
  402b3b:	48 8d b4 24 40 20 00 	lea    0x2040(%rsp),%rsi
  402b42:	00 
  402b43:	48 8d 7c 24 30       	lea    0x30(%rsp),%rdi
  402b48:	e8 3b f8 ff ff       	callq  402388 <rio_readlineb>
  402b4d:	48 85 c0             	test   %rax,%rax
  402b50:	0f 8e 90 00 00 00    	jle    402be6 <submitr+0x6a9>
  402b56:	44 8b 44 24 1c       	mov    0x1c(%rsp),%r8d
  402b5b:	41 81 f8 c8 00 00 00 	cmp    $0xc8,%r8d
  402b62:	0f 85 02 01 00 00    	jne    402c6a <submitr+0x72d>
  402b68:	48 8d b4 24 40 20 00 	lea    0x2040(%rsp),%rsi
  402b6f:	00 
  402b70:	48 89 ef             	mov    %rbp,%rdi
  402b73:	e8 38 e1 ff ff       	callq  400cb0 <strcpy@plt>
  402b78:	89 df                	mov    %ebx,%edi
  402b7a:	e8 a1 e1 ff ff       	callq  400d20 <close@plt>
  402b7f:	bf 30 38 40 00       	mov    $0x403830,%edi
  402b84:	b9 04 00 00 00       	mov    $0x4,%ecx
  402b89:	48 89 ee             	mov    %rbp,%rsi
  402b8c:	f3 a6                	repz cmpsb %es:(%rdi),%ds:(%rsi)
  402b8e:	0f 97 c0             	seta   %al
  402b91:	1c 00                	sbb    $0x0,%al
  402b93:	0f be c0             	movsbl %al,%eax
  402b96:	85 c0                	test   %eax,%eax
  402b98:	0f 84 76 fc ff ff    	je     402814 <submitr+0x2d7>
  402b9e:	bf 34 38 40 00       	mov    $0x403834,%edi
  402ba3:	b9 05 00 00 00       	mov    $0x5,%ecx
  402ba8:	48 89 ee             	mov    %rbp,%rsi
  402bab:	f3 a6                	repz cmpsb %es:(%rdi),%ds:(%rsi)
  402bad:	0f 97 c0             	seta   %al
  402bb0:	1c 00                	sbb    $0x0,%al
  402bb2:	0f be c0             	movsbl %al,%eax
  402bb5:	85 c0                	test   %eax,%eax
  402bb7:	0f 84 57 fc ff ff    	je     402814 <submitr+0x2d7>
  402bbd:	bf 39 38 40 00       	mov    $0x403839,%edi
  402bc2:	b9 03 00 00 00       	mov    $0x3,%ecx
  402bc7:	48 89 ee             	mov    %rbp,%rsi
  402bca:	f3 a6                	repz cmpsb %es:(%rdi),%ds:(%rsi)
  402bcc:	0f 97 c0             	seta   %al
  402bcf:	1c 00                	sbb    $0x0,%al
  402bd1:	0f be c0             	movsbl %al,%eax
  402bd4:	85 c0                	test   %eax,%eax
  402bd6:	0f 84 38 fc ff ff    	je     402814 <submitr+0x2d7>
  402bdc:	b8 ff ff ff ff       	mov    $0xffffffff,%eax
  402be1:	e9 2e fc ff ff       	jmpq   402814 <submitr+0x2d7>
  402be6:	48 b8 45 72 72 6f 72 	movabs $0x43203a726f727245,%rax
  402bed:	3a 20 43 
  402bf0:	48 ba 6c 69 65 6e 74 	movabs $0x6e7520746e65696c,%rdx
  402bf7:	20 75 6e 
  402bfa:	48 89 45 00          	mov    %rax,0x0(%rbp)
  402bfe:	48 89 55 08          	mov    %rdx,0x8(%rbp)
  402c02:	48 b8 61 62 6c 65 20 	movabs $0x206f7420656c6261,%rax
  402c09:	74 6f 20 
  402c0c:	48 ba 72 65 61 64 20 	movabs $0x6174732064616572,%rdx
  402c13:	73 74 61 
  402c16:	48 89 45 10          	mov    %rax,0x10(%rbp)
  402c1a:	48 89 55 18          	mov    %rdx,0x18(%rbp)
  402c1e:	48 b8 74 75 73 20 6d 	movabs $0x7373656d20737574,%rax
  402c25:	65 73 73 
  402c28:	48 ba 61 67 65 20 66 	movabs $0x6d6f726620656761,%rdx
  402c2f:	72 6f 6d 
  402c32:	48 89 45 20          	mov    %rax,0x20(%rbp)
  402c36:	48 89 55 28          	mov    %rdx,0x28(%rbp)
  402c3a:	48 b8 20 72 65 73 75 	movabs $0x20746c7573657220,%rax
  402c41:	6c 74 20 
  402c44:	48 89 45 30          	mov    %rax,0x30(%rbp)
  402c48:	c7 45 38 73 65 72 76 	movl   $0x76726573,0x38(%rbp)
  402c4f:	66 c7 45 3c 65 72    	movw   $0x7265,0x3c(%rbp)
  402c55:	c6 45 3e 00          	movb   $0x0,0x3e(%rbp)
  402c59:	89 df                	mov    %ebx,%edi
  402c5b:	e8 c0 e0 ff ff       	callq  400d20 <close@plt>
  402c60:	b8 ff ff ff ff       	mov    $0xffffffff,%eax
  402c65:	e9 aa fb ff ff       	jmpq   402814 <submitr+0x2d7>
  402c6a:	4c 8d 8c 24 40 80 00 	lea    0x8040(%rsp),%r9
  402c71:	00 
  402c72:	b9 e8 37 40 00       	mov    $0x4037e8,%ecx
  402c77:	48 c7 c2 ff ff ff ff 	mov    $0xffffffffffffffff,%rdx
  402c7e:	be 01 00 00 00       	mov    $0x1,%esi
  402c83:	48 89 ef             	mov    %rbp,%rdi
  402c86:	b8 00 00 00 00       	mov    $0x0,%eax
  402c8b:	e8 d0 e1 ff ff       	callq  400e60 <__sprintf_chk@plt>
  402c90:	89 df                	mov    %ebx,%edi
  402c92:	e8 89 e0 ff ff       	callq  400d20 <close@plt>
  402c97:	b8 ff ff ff ff       	mov    $0xffffffff,%eax
  402c9c:	e9 73 fb ff ff       	jmpq   402814 <submitr+0x2d7>
  402ca1:	e8 3a e0 ff ff       	callq  400ce0 <__stack_chk_fail@plt>

0000000000402ca6 <init_timeout>:
  402ca6:	85 ff                	test   %edi,%edi
  402ca8:	74 26                	je     402cd0 <init_timeout+0x2a>
  402caa:	53                   	push   %rbx
  402cab:	89 fb                	mov    %edi,%ebx
  402cad:	85 ff                	test   %edi,%edi
  402caf:	78 18                	js     402cc9 <init_timeout+0x23>
  402cb1:	be 71 22 40 00       	mov    $0x402271,%esi
  402cb6:	bf 0e 00 00 00       	mov    $0xe,%edi
  402cbb:	e8 80 e0 ff ff       	callq  400d40 <signal@plt>
  402cc0:	89 df                	mov    %ebx,%edi
  402cc2:	e8 49 e0 ff ff       	callq  400d10 <alarm@plt>
  402cc7:	5b                   	pop    %rbx
  402cc8:	c3                   	retq   
  402cc9:	bb 00 00 00 00       	mov    $0x0,%ebx
  402cce:	eb e1                	jmp    402cb1 <init_timeout+0xb>
  402cd0:	f3 c3                	repz retq 

0000000000402cd2 <init_driver>:
  402cd2:	55                   	push   %rbp
  402cd3:	53                   	push   %rbx
  402cd4:	48 83 ec 28          	sub    $0x28,%rsp
  402cd8:	48 89 fd             	mov    %rdi,%rbp
  402cdb:	64 48 8b 04 25 28 00 	mov    %fs:0x28,%rax
  402ce2:	00 00 
  402ce4:	48 89 44 24 18       	mov    %rax,0x18(%rsp)
  402ce9:	31 c0                	xor    %eax,%eax
  402ceb:	be 01 00 00 00       	mov    $0x1,%esi
  402cf0:	bf 0d 00 00 00       	mov    $0xd,%edi
  402cf5:	e8 46 e0 ff ff       	callq  400d40 <signal@plt>
  402cfa:	be 01 00 00 00       	mov    $0x1,%esi
  402cff:	bf 1d 00 00 00       	mov    $0x1d,%edi
  402d04:	e8 37 e0 ff ff       	callq  400d40 <signal@plt>
  402d09:	be 01 00 00 00       	mov    $0x1,%esi
  402d0e:	bf 1d 00 00 00       	mov    $0x1d,%edi
  402d13:	e8 28 e0 ff ff       	callq  400d40 <signal@plt>
  402d18:	ba 00 00 00 00       	mov    $0x0,%edx
  402d1d:	be 01 00 00 00       	mov    $0x1,%esi
  402d22:	bf 02 00 00 00       	mov    $0x2,%edi
  402d27:	e8 44 e1 ff ff       	callq  400e70 <socket@plt>
  402d2c:	85 c0                	test   %eax,%eax
  402d2e:	0f 88 9c 00 00 00    	js     402dd0 <init_driver+0xfe>
  402d34:	89 c3                	mov    %eax,%ebx
  402d36:	bf 3d 33 40 00       	mov    $0x40333d,%edi
  402d3b:	e8 10 e0 ff ff       	callq  400d50 <gethostbyname@plt>
  402d40:	48 85 c0             	test   %rax,%rax
  402d43:	0f 84 d3 00 00 00    	je     402e1c <init_driver+0x14a>
  402d49:	48 c7 44 24 02 00 00 	movq   $0x0,0x2(%rsp)
  402d50:	00 00 
  402d52:	c7 44 24 0a 00 00 00 	movl   $0x0,0xa(%rsp)
  402d59:	00 
  402d5a:	66 c7 44 24 0e 00 00 	movw   $0x0,0xe(%rsp)
  402d61:	66 c7 04 24 02 00    	movw   $0x2,(%rsp)
  402d67:	48 63 50 14          	movslq 0x14(%rax),%rdx
  402d6b:	48 8b 40 18          	mov    0x18(%rax),%rax
  402d6f:	48 8b 30             	mov    (%rax),%rsi
  402d72:	48 8d 7c 24 04       	lea    0x4(%rsp),%rdi
  402d77:	b9 0c 00 00 00       	mov    $0xc,%ecx
  402d7c:	e8 df df ff ff       	callq  400d60 <__memmove_chk@plt>
  402d81:	66 c7 44 24 02 3b d2 	movw   $0xd23b,0x2(%rsp)
  402d88:	ba 10 00 00 00       	mov    $0x10,%edx
  402d8d:	48 89 e6             	mov    %rsp,%rsi
  402d90:	89 df                	mov    %ebx,%edi
  402d92:	e8 a9 e0 ff ff       	callq  400e40 <connect@plt>
  402d97:	85 c0                	test   %eax,%eax
  402d99:	0f 88 e5 00 00 00    	js     402e84 <init_driver+0x1b2>
  402d9f:	89 df                	mov    %ebx,%edi
  402da1:	e8 7a df ff ff       	callq  400d20 <close@plt>
  402da6:	66 c7 45 00 4f 4b    	movw   $0x4b4f,0x0(%rbp)
  402dac:	c6 45 02 00          	movb   $0x0,0x2(%rbp)
  402db0:	b8 00 00 00 00       	mov    $0x0,%eax
  402db5:	48 8b 4c 24 18       	mov    0x18(%rsp),%rcx
  402dba:	64 48 33 0c 25 28 00 	xor    %fs:0x28,%rcx
  402dc1:	00 00 
  402dc3:	0f 85 0e 01 00 00    	jne    402ed7 <init_driver+0x205>
  402dc9:	48 83 c4 28          	add    $0x28,%rsp
  402dcd:	5b                   	pop    %rbx
  402dce:	5d                   	pop    %rbp
  402dcf:	c3                   	retq   
  402dd0:	48 b8 45 72 72 6f 72 	movabs $0x43203a726f727245,%rax
  402dd7:	3a 20 43 
  402dda:	48 ba 6c 69 65 6e 74 	movabs $0x6e7520746e65696c,%rdx
  402de1:	20 75 6e 
  402de4:	48 89 45 00          	mov    %rax,0x0(%rbp)
  402de8:	48 89 55 08          	mov    %rdx,0x8(%rbp)
  402dec:	48 b8 61 62 6c 65 20 	movabs $0x206f7420656c6261,%rax
  402df3:	74 6f 20 
  402df6:	48 ba 63 72 65 61 74 	movabs $0x7320657461657263,%rdx
  402dfd:	65 20 73 
  402e00:	48 89 45 10          	mov    %rax,0x10(%rbp)
  402e04:	48 89 55 18          	mov    %rdx,0x18(%rbp)
  402e08:	c7 45 20 6f 63 6b 65 	movl   $0x656b636f,0x20(%rbp)
  402e0f:	66 c7 45 24 74 00    	movw   $0x74,0x24(%rbp)
  402e15:	b8 ff ff ff ff       	mov    $0xffffffff,%eax
  402e1a:	eb 99                	jmp    402db5 <init_driver+0xe3>
  402e1c:	48 b8 45 72 72 6f 72 	movabs $0x44203a726f727245,%rax
  402e23:	3a 20 44 
  402e26:	48 ba 4e 53 20 69 73 	movabs $0x6e7520736920534e,%rdx
  402e2d:	20 75 6e 
  402e30:	48 89 45 00          	mov    %rax,0x0(%rbp)
  402e34:	48 89 55 08          	mov    %rdx,0x8(%rbp)
  402e38:	48 b8 61 62 6c 65 20 	movabs $0x206f7420656c6261,%rax
  402e3f:	74 6f 20 
  402e42:	48 ba 72 65 73 6f 6c 	movabs $0x2065766c6f736572,%rdx
  402e49:	76 65 20 
  402e4c:	48 89 45 10          	mov    %rax,0x10(%rbp)
  402e50:	48 89 55 18          	mov    %rdx,0x18(%rbp)
  402e54:	48 b8 73 65 72 76 65 	movabs $0x6120726576726573,%rax
  402e5b:	72 20 61 
  402e5e:	48 89 45 20          	mov    %rax,0x20(%rbp)
  402e62:	c7 45 28 64 64 72 65 	movl   $0x65726464,0x28(%rbp)
  402e69:	66 c7 45 2c 73 73    	movw   $0x7373,0x2c(%rbp)
  402e6f:	c6 45 2e 00          	movb   $0x0,0x2e(%rbp)
  402e73:	89 df                	mov    %ebx,%edi
  402e75:	e8 a6 de ff ff       	callq  400d20 <close@plt>
  402e7a:	b8 ff ff ff ff       	mov    $0xffffffff,%eax
  402e7f:	e9 31 ff ff ff       	jmpq   402db5 <init_driver+0xe3>
  402e84:	48 b8 45 72 72 6f 72 	movabs $0x55203a726f727245,%rax
  402e8b:	3a 20 55 
  402e8e:	48 ba 6e 61 62 6c 65 	movabs $0x6f7420656c62616e,%rdx
  402e95:	20 74 6f 
  402e98:	48 89 45 00          	mov    %rax,0x0(%rbp)
  402e9c:	48 89 55 08          	mov    %rdx,0x8(%rbp)
  402ea0:	48 b8 20 63 6f 6e 6e 	movabs $0x7463656e6e6f6320,%rax
  402ea7:	65 63 74 
  402eaa:	48 ba 20 74 6f 20 73 	movabs $0x76726573206f7420,%rdx
  402eb1:	65 72 76 
  402eb4:	48 89 45 10          	mov    %rax,0x10(%rbp)
  402eb8:	48 89 55 18          	mov    %rdx,0x18(%rbp)
  402ebc:	66 c7 45 20 65 72    	movw   $0x7265,0x20(%rbp)
  402ec2:	c6 45 22 00          	movb   $0x0,0x22(%rbp)
  402ec6:	89 df                	mov    %ebx,%edi
  402ec8:	e8 53 de ff ff       	callq  400d20 <close@plt>
  402ecd:	b8 ff ff ff ff       	mov    $0xffffffff,%eax
  402ed2:	e9 de fe ff ff       	jmpq   402db5 <init_driver+0xe3>
  402ed7:	e8 04 de ff ff       	callq  400ce0 <__stack_chk_fail@plt>

0000000000402edc <driver_post>:
  402edc:	53                   	push   %rbx
  402edd:	4c 89 cb             	mov    %r9,%rbx
  402ee0:	45 85 c0             	test   %r8d,%r8d
  402ee3:	75 18                	jne    402efd <driver_post+0x21>
  402ee5:	48 85 ff             	test   %rdi,%rdi
  402ee8:	74 05                	je     402eef <driver_post+0x13>
  402eea:	80 3f 00             	cmpb   $0x0,(%rdi)
  402eed:	75 35                	jne    402f24 <driver_post+0x48>
  402eef:	66 c7 03 4f 4b       	movw   $0x4b4f,(%rbx)
  402ef4:	c6 43 02 00          	movb   $0x0,0x2(%rbx)
  402ef8:	44 89 c0             	mov    %r8d,%eax
  402efb:	5b                   	pop    %rbx
  402efc:	c3                   	retq   
  402efd:	48 89 ca             	mov    %rcx,%rdx
  402f00:	be 3c 38 40 00       	mov    $0x40383c,%esi
  402f05:	bf 01 00 00 00       	mov    $0x1,%edi
  402f0a:	b8 00 00 00 00       	mov    $0x0,%eax
  402f0f:	e8 cc de ff ff       	callq  400de0 <__printf_chk@plt>
  402f14:	66 c7 03 4f 4b       	movw   $0x4b4f,(%rbx)
  402f19:	c6 43 02 00          	movb   $0x0,0x2(%rbx)
  402f1d:	b8 00 00 00 00       	mov    $0x0,%eax
  402f22:	eb d7                	jmp    402efb <driver_post+0x1f>
  402f24:	48 83 ec 08          	sub    $0x8,%rsp
  402f28:	41 51                	push   %r9
  402f2a:	49 89 c9             	mov    %rcx,%r9
  402f2d:	49 89 d0             	mov    %rdx,%r8
  402f30:	48 89 f9             	mov    %rdi,%rcx
  402f33:	48 89 f2             	mov    %rsi,%rdx
  402f36:	be d2 3b 00 00       	mov    $0x3bd2,%esi
  402f3b:	bf 3d 33 40 00       	mov    $0x40333d,%edi
  402f40:	e8 f8 f5 ff ff       	callq  40253d <submitr>
  402f45:	48 83 c4 10          	add    $0x10,%rsp
  402f49:	eb b0                	jmp    402efb <driver_post+0x1f>

0000000000402f4b <check>:
  402f4b:	89 f8                	mov    %edi,%eax
  402f4d:	c1 e8 1c             	shr    $0x1c,%eax
  402f50:	85 c0                	test   %eax,%eax
  402f52:	74 1d                	je     402f71 <check+0x26>
  402f54:	b9 00 00 00 00       	mov    $0x0,%ecx
  402f59:	83 f9 1f             	cmp    $0x1f,%ecx
  402f5c:	7f 0d                	jg     402f6b <check+0x20>
  402f5e:	89 f8                	mov    %edi,%eax
  402f60:	d3 e8                	shr    %cl,%eax
  402f62:	3c 0a                	cmp    $0xa,%al
  402f64:	74 11                	je     402f77 <check+0x2c>
  402f66:	83 c1 08             	add    $0x8,%ecx
  402f69:	eb ee                	jmp    402f59 <check+0xe>
  402f6b:	b8 01 00 00 00       	mov    $0x1,%eax
  402f70:	c3                   	retq   
  402f71:	b8 00 00 00 00       	mov    $0x0,%eax
  402f76:	c3                   	retq   
  402f77:	b8 00 00 00 00       	mov    $0x0,%eax
  402f7c:	c3                   	retq   

0000000000402f7d <gencookie>:
  402f7d:	53                   	push   %rbx
  402f7e:	83 c7 01             	add    $0x1,%edi
  402f81:	e8 0a dd ff ff       	callq  400c90 <srandom@plt>
  402f86:	e8 15 de ff ff       	callq  400da0 <random@plt>
  402f8b:	89 c3                	mov    %eax,%ebx
  402f8d:	89 c7                	mov    %eax,%edi
  402f8f:	e8 b7 ff ff ff       	callq  402f4b <check>
  402f94:	85 c0                	test   %eax,%eax
  402f96:	74 ee                	je     402f86 <gencookie+0x9>
  402f98:	89 d8                	mov    %ebx,%eax
  402f9a:	5b                   	pop    %rbx
  402f9b:	c3                   	retq   
  402f9c:	0f 1f 40 00          	nopl   0x0(%rax)

0000000000402fa0 <__libc_csu_init>:
  402fa0:	41 57                	push   %r15
  402fa2:	41 56                	push   %r14
  402fa4:	49 89 d7             	mov    %rdx,%r15
  402fa7:	41 55                	push   %r13
  402fa9:	41 54                	push   %r12
  402fab:	4c 8d 25 5e 1e 20 00 	lea    0x201e5e(%rip),%r12        # 604e10 <__frame_dummy_init_array_entry>
  402fb2:	55                   	push   %rbp
  402fb3:	48 8d 2d 5e 1e 20 00 	lea    0x201e5e(%rip),%rbp        # 604e18 <__init_array_end>
  402fba:	53                   	push   %rbx
  402fbb:	41 89 fd             	mov    %edi,%r13d
  402fbe:	49 89 f6             	mov    %rsi,%r14
  402fc1:	4c 29 e5             	sub    %r12,%rbp
  402fc4:	48 83 ec 08          	sub    $0x8,%rsp
  402fc8:	48 c1 fd 03          	sar    $0x3,%rbp
  402fcc:	e8 77 dc ff ff       	callq  400c48 <_init>
  402fd1:	48 85 ed             	test   %rbp,%rbp
  402fd4:	74 20                	je     402ff6 <__libc_csu_init+0x56>
  402fd6:	31 db                	xor    %ebx,%ebx
  402fd8:	0f 1f 84 00 00 00 00 	nopl   0x0(%rax,%rax,1)
  402fdf:	00 
  402fe0:	4c 89 fa             	mov    %r15,%rdx
  402fe3:	4c 89 f6             	mov    %r14,%rsi
  402fe6:	44 89 ef             	mov    %r13d,%edi
  402fe9:	41 ff 14 dc          	callq  *(%r12,%rbx,8)
  402fed:	48 83 c3 01          	add    $0x1,%rbx
  402ff1:	48 39 dd             	cmp    %rbx,%rbp
  402ff4:	75 ea                	jne    402fe0 <__libc_csu_init+0x40>
  402ff6:	48 83 c4 08          	add    $0x8,%rsp
  402ffa:	5b                   	pop    %rbx
  402ffb:	5d                   	pop    %rbp
  402ffc:	41 5c                	pop    %r12
  402ffe:	41 5d                	pop    %r13
  403000:	41 5e                	pop    %r14
  403002:	41 5f                	pop    %r15
  403004:	c3                   	retq   
  403005:	90                   	nop
  403006:	66 2e 0f 1f 84 00 00 	nopw   %cs:0x0(%rax,%rax,1)
  40300d:	00 00 00 

0000000000403010 <__libc_csu_fini>:
  403010:	f3 c3                	repz retq 

Disassembly of section .fini:

0000000000403014 <_fini>:
  403014:	48 83 ec 08          	sub    $0x8,%rsp
  403018:	48 83 c4 08          	add    $0x8,%rsp
  40301c:	c3                   	retq   
